---
triple:          'arm64-apple-darwin'
binary-path:     '/Users/yasminekadire/Documents/C++/Homework2/question3test'
relocations:
  - { offsetInCU: 0x3F, offset: 0x3F, size: 0x8, addend: 0x0, symName: _coutMutex, symObjAddr: 0x7C80, symBinAddr: 0x100010000, symSize: 0x0 }
  - { offsetInCU: 0x125, offset: 0x125, size: 0x8, addend: 0x0, symName: __ZNSt3__1L10adopt_lockE, symObjAddr: 0x7D63, symBinAddr: 0x10000B960, symSize: 0x0 }
  - { offsetInCU: 0x4C1E, offset: 0x4C1E, size: 0x8, addend: 0x0, symName: __ZNSt3__16chronomiB7v160006IxNS_5ratioILl1ELl1000000000EEExS3_EENS_11common_typeIJNS0_8durationIT_T0_EENS5_IT1_T2_EEEE4typeERKS8_RKSB_, symObjAddr: 0x6CE8, symBinAddr: 0x10000A608, symSize: 0x70 }
  - { offsetInCU: 0x4DC7, offset: 0x4DC7, size: 0x8, addend: 0x0, symName: __ZNSt3__16chronogtB7v160006IxNS_5ratioILl1ELl1EEExS3_EEbRKNS0_8durationIT_T0_EERKNS4_IT1_T2_EE, symObjAddr: 0x5680, symBinAddr: 0x100008FA0, symSize: 0x30 }
  - { offsetInCU: 0x4E28, offset: 0x4E28, size: 0x8, addend: 0x0, symName: __ZNSt3__16chronoltB7v160006IxNS_5ratioILl1ELl1EEEeS3_EEbRKNS0_8durationIT_T0_EERKNS4_IT1_T2_EE, symObjAddr: 0x56EC, symBinAddr: 0x10000900C, symSize: 0x34 }
  - { offsetInCU: 0x4E89, offset: 0x4E89, size: 0x8, addend: 0x0, symName: __ZNSt3__16chrono13duration_castB7v160006INS0_8durationIxNS_5ratioILl1ELl1000000000EEEEExNS3_ILl1ELl1EEEEENS_9enable_ifIXsr13__is_durationIT_EE5valueES8_E4typeERKNS2_IT0_T1_EE, symObjAddr: 0x5720, symBinAddr: 0x100009040, symSize: 0x30 }
  - { offsetInCU: 0x4ED0, offset: 0x4ED0, size: 0x8, addend: 0x0, symName: __ZNSt3__16chronoltB7v160006IxNS_5ratioILl1ELl1000000000EEExNS2_ILl1ELl1EEEEEbRKNS0_8durationIT_T0_EERKNS5_IT1_T2_EE, symObjAddr: 0x5750, symBinAddr: 0x100009070, symSize: 0x34 }
  - { offsetInCU: 0x4F31, offset: 0x4F31, size: 0x8, addend: 0x0, symName: __ZNSt3__16chronoltB7v160006IxNS_5ratioILl1ELl1EEExS3_EEbRKNS0_8durationIT_T0_EERKNS4_IT1_T2_EE, symObjAddr: 0x57E0, symBinAddr: 0x100009100, symSize: 0x34 }
  - { offsetInCU: 0x4FCF, offset: 0x4FCF, size: 0x8, addend: 0x0, symName: __ZNSt3__16chrono13duration_castB7v160006INS0_8durationIeNS_5ratioILl1ELl1EEEEExS4_EENS_9enable_ifIXsr13__is_durationIT_EE5valueES7_E4typeERKNS2_IT0_T1_EE, symObjAddr: 0x59E4, symBinAddr: 0x100009304, symSize: 0x30 }
  - { offsetInCU: 0x5061, offset: 0x5061, size: 0x8, addend: 0x0, symName: __ZNSt3__16chrono13duration_castB7v160006INS0_8durationIxNS_5ratioILl1ELl1EEEEExNS3_ILl1ELl1000000000EEEEENS_9enable_ifIXsr13__is_durationIT_EE5valueES8_E4typeERKNS2_IT0_T1_EE, symObjAddr: 0x6C14, symBinAddr: 0x10000A534, symSize: 0x30 }
  - { offsetInCU: 0x50A8, offset: 0x50A8, size: 0x8, addend: 0x0, symName: __ZNSt3__16chronomiB7v160006INS0_12steady_clockENS0_8durationIxNS_5ratioILl1ELl1000000000EEEEES6_EENS_11common_typeIJT0_T1_EE4typeERKNS0_10time_pointIT_S8_EERKNSC_ISD_S9_EE, symObjAddr: 0x6C44, symBinAddr: 0x10000A564, symSize: 0x58 }
  - { offsetInCU: 0x9A32, offset: 0x9A32, size: 0x8, addend: 0x0, symName: __ZNSt3__124__put_character_sequenceB7v160006IcNS_11char_traitsIcEEEERNS_13basic_ostreamIT_T0_EES7_PKS4_m, symObjAddr: 0x6DBC, symBinAddr: 0x10000A6DC, symSize: 0x1EC }
  - { offsetInCU: 0xB78C, offset: 0xB78C, size: 0x8, addend: 0x0, symName: __ZNSt3__1lsB7v160006INS_11char_traitsIcEEEERNS_13basic_ostreamIcT_EES6_PKc, symObjAddr: 0xFC, symBinAddr: 0x100003A1C, symSize: 0x48 }
  - { offsetInCU: 0xB7D2, offset: 0xB7D2, size: 0x8, addend: 0x0, symName: __ZNSt3__14endlB7v160006IcNS_11char_traitsIcEEEERNS_13basic_ostreamIT_T0_EES7_, symObjAddr: 0x170, symBinAddr: 0x100003A90, symSize: 0x58 }
  - { offsetInCU: 0xB812, offset: 0xB812, size: 0x8, addend: 0x0, symName: __ZNSt3__122__make_exception_guardB7v160006INS_6vectorINS_5mutexENS_9allocatorIS2_EEE16__destroy_vectorEEENS_28__exception_guard_exceptionsIT_EES8_, symObjAddr: 0x868, symBinAddr: 0x100004188, symSize: 0x40 }
  - { offsetInCU: 0xB847, offset: 0xB847, size: 0x8, addend: 0x0, symName: __ZNSt3__119__debug_db_insert_cB7v160006INS_6vectorINS_5mutexENS_9allocatorIS2_EEEEEEvPT_, symObjAddr: 0x8DC, symBinAddr: 0x1000041FC, symSize: 0x10 }
  - { offsetInCU: 0xB878, offset: 0xB878, size: 0x8, addend: 0x0, symName: __ZNSt3__119__allocate_at_leastB7v160006INS_9allocatorINS_5mutexEEEEENS_19__allocation_resultINS_16allocator_traitsIT_E7pointerEEERS6_m, symObjAddr: 0xC64, symBinAddr: 0x100004584, symSize: 0x40 }
  - { offsetInCU: 0xB8BB, offset: 0xB8BB, size: 0x8, addend: 0x0, symName: __ZNSt3__13minB7v160006ImEERKT_S3_S3_, symObjAddr: 0xDA0, symBinAddr: 0x1000046C0, symSize: 0x2C }
  - { offsetInCU: 0xBAFF, offset: 0xBAFF, size: 0x8, addend: 0x0, symName: __ZNSt3__13minB7v160006ImNS_6__lessImmEEEERKT_S5_S5_T0_, symObjAddr: 0xE38, symBinAddr: 0x100004758, symSize: 0x54 }
  - { offsetInCU: 0xBB94, offset: 0xBB94, size: 0x8, addend: 0x0, symName: __ZNSt3__120__throw_length_errorB7v160006EPKc, symObjAddr: 0xF14, symBinAddr: 0x100004834, symSize: 0x64 }
  - { offsetInCU: 0xBBBC, offset: 0xBBBC, size: 0x8, addend: 0x0, symName: __ZNSt3__117__libcpp_allocateB7v160006Emm, symObjAddr: 0x1084, symBinAddr: 0x1000049A4, symSize: 0x28 }
  - { offsetInCU: 0xBBF9, offset: 0xBBF9, size: 0x8, addend: 0x0, symName: __ZNSt3__121__libcpp_operator_newB7v160006IJmEEEPvDpT_, symObjAddr: 0x10AC, symBinAddr: 0x1000049CC, symSize: 0x24 }
  - { offsetInCU: 0xBC32, offset: 0xBC32, size: 0x8, addend: 0x0, symName: __ZNSt3__112__to_addressB7v160006INS_5mutexEEEPT_S3_, symObjAddr: 0x11C8, symBinAddr: 0x100004AE8, symSize: 0x14 }
  - { offsetInCU: 0xBC67, offset: 0xBC67, size: 0x8, addend: 0x0, symName: __ZNSt3__118__debug_db_erase_cB7v160006INS_6vectorINS_5mutexENS_9allocatorIS2_EEEEEEvPT_, symObjAddr: 0x1584, symBinAddr: 0x100004EA4, symSize: 0x10 }
  - { offsetInCU: 0xBC98, offset: 0xBC98, size: 0x8, addend: 0x0, symName: __ZNSt3__119__libcpp_deallocateB7v160006EPvmm, symObjAddr: 0x1738, symBinAddr: 0x100005058, symSize: 0x30 }
  - { offsetInCU: 0xBCE0, offset: 0xBCE0, size: 0x8, addend: 0x0, symName: __ZNSt3__127__do_deallocate_handle_sizeB7v160006IJEEEvPvmDpT_, symObjAddr: 0x1768, symBinAddr: 0x100005088, symSize: 0x28 }
  - { offsetInCU: 0xBD1E, offset: 0xBD1E, size: 0x8, addend: 0x0, symName: __ZNSt3__124__libcpp_operator_deleteB7v160006IJPvEEEvDpT_, symObjAddr: 0x1790, symBinAddr: 0x1000050B0, symSize: 0x24 }
  - { offsetInCU: 0xBD53, offset: 0xBD53, size: 0x8, addend: 0x0, symName: __ZNSt3__119__debug_db_insert_cB7v160006INS_6vectorINS_6threadENS_9allocatorIS2_EEEEEEvPT_, symObjAddr: 0x1848, symBinAddr: 0x100005168, symSize: 0x10 }
  - { offsetInCU: 0xBD84, offset: 0xBD84, size: 0x8, addend: 0x0, symName: __ZNSt3__119__debug_db_insert_cB7v160006INS_6vectorI5RobotNS_9allocatorIS2_EEEEEEvPT_, symObjAddr: 0x19B4, symBinAddr: 0x1000052D4, symSize: 0x10 }
  - { offsetInCU: 0xBDD1, offset: 0xBDD1, size: 0x8, addend: 0x0, symName: __ZNSt3__112__to_addressB7v160006I5RobotEEPT_S3_, symObjAddr: 0x1DF8, symBinAddr: 0x100005718, symSize: 0x14 }
  - { offsetInCU: 0xBE06, offset: 0xBE06, size: 0x8, addend: 0x0, symName: __ZNSt3__13maxB7v160006ImEERKT_S3_S3_, symObjAddr: 0x22B8, symBinAddr: 0x100005BD8, symSize: 0x2C }
  - { offsetInCU: 0xBE49, offset: 0xBE49, size: 0x8, addend: 0x0, symName: __ZNSt3__13maxB7v160006ImNS_6__lessImmEEEERKT_S5_S5_T0_, symObjAddr: 0x23DC, symBinAddr: 0x100005CFC, symSize: 0x54 }
  - { offsetInCU: 0xBEA3, offset: 0xBEA3, size: 0x8, addend: 0x0, symName: __ZNSt3__119__allocate_at_leastB7v160006INS_9allocatorI5RobotEEEENS_19__allocation_resultINS_16allocator_traitsIT_E7pointerEEERS6_m, symObjAddr: 0x2540, symBinAddr: 0x100005E60, symSize: 0x40 }
  - { offsetInCU: 0xBEE6, offset: 0xBEE6, size: 0x8, addend: 0x0, symName: __ZNSt3__142__uninitialized_allocator_move_if_noexceptB7v160006INS_9allocatorI5RobotEENS_16reverse_iteratorIPS2_EES6_S2_vEET1_RT_T0_SA_S7_, symObjAddr: 0x27AC, symBinAddr: 0x1000060CC, symSize: 0x78 }
  - { offsetInCU: 0xBF63, offset: 0xBF63, size: 0x8, addend: 0x0, symName: __ZNSt3__14swapB7v160006IP5RobotEENS_9enable_ifIXaasr21is_move_constructibleIT_EE5valuesr18is_move_assignableIS4_EE5valueEvE4typeERS4_S7_, symObjAddr: 0x2870, symBinAddr: 0x100006190, symSize: 0x3C }
  - { offsetInCU: 0xBFB4, offset: 0xBFB4, size: 0x8, addend: 0x0, symName: __ZNSt3__125__debug_db_invalidate_allB7v160006INS_6vectorI5RobotNS_9allocatorIS2_EEEEEEvPT_, symObjAddr: 0x2958, symBinAddr: 0x100006278, symSize: 0x10 }
  - { offsetInCU: 0xBFE5, offset: 0xBFE5, size: 0x8, addend: 0x0, symName: __ZNSt3__14moveB7v160006INS_16reverse_iteratorIP5RobotEES4_EET0_T_S6_S5_, symObjAddr: 0x29B0, symBinAddr: 0x1000062D0, symSize: 0x78 }
  - { offsetInCU: 0xC03F, offset: 0xC03F, size: 0x8, addend: 0x0, symName: __ZNSt3__16__moveB7v160006INS_17_ClassicAlgPolicyENS_16reverse_iteratorIP5RobotEES5_S5_EENS_4pairIT0_T2_EES7_T1_S8_, symObjAddr: 0x2A28, symBinAddr: 0x100006348, symSize: 0x64 }
  - { offsetInCU: 0xC0AB, offset: 0xC0AB, size: 0x8, addend: 0x0, symName: __ZNSt3__123__dispatch_copy_or_moveB7v160006INS_17_ClassicAlgPolicyENS_11__move_loopIS1_EENS_14__move_trivialENS_16reverse_iteratorIP5RobotEES8_S8_EENS_4pairIT2_T4_EESA_T3_SB_, symObjAddr: 0x2A8C, symBinAddr: 0x1000063AC, symSize: 0x64 }
  - { offsetInCU: 0xC129, offset: 0xC129, size: 0x8, addend: 0x0, symName: __ZNSt3__121__unwrap_and_dispatchB7v160006INS_10__overloadINS_11__move_loopINS_17_ClassicAlgPolicyEEENS_14__move_trivialEEENS_16reverse_iteratorIP5RobotEESA_SA_Li0EEENS_4pairIT0_T2_EESC_T1_SD_, symObjAddr: 0x2AF0, symBinAddr: 0x100006410, symSize: 0x12C }
  - { offsetInCU: 0xC1B9, offset: 0xC1B9, size: 0x8, addend: 0x0, symName: __ZNSt3__114__unwrap_rangeB7v160006INS_16reverse_iteratorIP5RobotEES4_EENS_4pairIT0_S6_EET_S8_, symObjAddr: 0x2C1C, symBinAddr: 0x10000653C, symSize: 0x84 }
  - { offsetInCU: 0xC334, offset: 0xC334, size: 0x8, addend: 0x0, symName: __ZNSt3__113__unwrap_iterB7v160006INS_16reverse_iteratorIP5RobotEENS_18__unwrap_iter_implIS4_Lb0EEELi0EEEDTclsrT0_8__unwrapclsr3stdE7declvalIT_EEEES8_, symObjAddr: 0x2D48, symBinAddr: 0x100006668, symSize: 0x44 }
  - { offsetInCU: 0xC378, offset: 0xC378, size: 0x8, addend: 0x0, symName: __ZNSt3__19make_pairB7v160006INS_16reverse_iteratorIP5RobotEES4_EENS_4pairINS_18__unwrap_ref_decayIT_E4typeENS6_IT0_E4typeEEEOS7_OSA_, symObjAddr: 0x2D8C, symBinAddr: 0x1000066AC, symSize: 0x38 }
  - { offsetInCU: 0xC3C7, offset: 0xC3C7, size: 0x8, addend: 0x0, symName: __ZNSt3__114__rewrap_rangeB7v160006INS_16reverse_iteratorIP5RobotEES4_EET_S5_T0_, symObjAddr: 0x2DC4, symBinAddr: 0x1000066E4, symSize: 0x5C }
  - { offsetInCU: 0xC413, offset: 0xC413, size: 0x8, addend: 0x0, symName: __ZNSt3__113__rewrap_iterB7v160006INS_16reverse_iteratorIP5RobotEES4_NS_18__unwrap_iter_implIS4_Lb0EEEEET_S7_T0_, symObjAddr: 0x2E20, symBinAddr: 0x100006740, symSize: 0x74 }
  - { offsetInCU: 0xC468, offset: 0xC468, size: 0x8, addend: 0x0, symName: __ZNSt3__1neB7v160006IP5RobotS2_EEbRKNS_16reverse_iteratorIT_EERKNS3_IT0_EE, symObjAddr: 0x2E94, symBinAddr: 0x1000067B4, symSize: 0x48 }
  - { offsetInCU: 0xC566, offset: 0xC566, size: 0x8, addend: 0x0, symName: __ZNSt3__118__debug_db_erase_cB7v160006INS_6vectorI5RobotNS_9allocatorIS2_EEEEEEvPT_, symObjAddr: 0x340C, symBinAddr: 0x100006D2C, symSize: 0x10 }
  - { offsetInCU: 0xC597, offset: 0xC597, size: 0x8, addend: 0x0, symName: __ZNSt3__118__debug_db_erase_cB7v160006INS_6vectorINS_6threadENS_9allocatorIS2_EEEEEEvPT_, symObjAddr: 0x36BC, symBinAddr: 0x100006FDC, symSize: 0x10 }
  - { offsetInCU: 0xC5C8, offset: 0xC5C8, size: 0x8, addend: 0x0, symName: __ZNSt3__112__to_addressB7v160006INS_6threadEEEPT_S3_, symObjAddr: 0x3800, symBinAddr: 0x100007120, symSize: 0x14 }
  - { offsetInCU: 0xC5FD, offset: 0xC5FD, size: 0x8, addend: 0x0, symName: __ZNSt3__13refB7v160006I5RobotEENS_17reference_wrapperIT_EERS3_, symObjAddr: 0x3D2C, symBinAddr: 0x10000764C, symSize: 0x2C }
  - { offsetInCU: 0xC632, offset: 0xC632, size: 0x8, addend: 0x0, symName: __ZNSt3__1neB7v160006IPNS_6threadEEEbRKNS_11__wrap_iterIT_EES7_, symObjAddr: 0x3E18, symBinAddr: 0x100007738, symSize: 0x34 }
  - { offsetInCU: 0xC675, offset: 0xC675, size: 0x8, addend: 0x0, symName: __ZNSt3__119__allocate_at_leastB7v160006INS_9allocatorINS_6threadEEEEENS_19__allocation_resultINS_16allocator_traitsIT_E7pointerEEERS6_m, symObjAddr: 0x463C, symBinAddr: 0x100007F5C, symSize: 0x40 }
  - { offsetInCU: 0xC6B8, offset: 0xC6B8, size: 0x8, addend: 0x0, symName: __ZNSt3__142__uninitialized_allocator_move_if_noexceptB7v160006INS_9allocatorINS_6threadEEENS_16reverse_iteratorIPS2_EES6_S6_EET2_RT_T0_T1_S7_, symObjAddr: 0x47F0, symBinAddr: 0x100008110, symSize: 0x12C }
  - { offsetInCU: 0xC758, offset: 0xC758, size: 0x8, addend: 0x0, symName: __ZNSt3__14swapB7v160006IPNS_6threadEEENS_9enable_ifIXaasr21is_move_constructibleIT_EE5valuesr18is_move_assignableIS4_EE5valueEvE4typeERS4_S7_, symObjAddr: 0x4968, symBinAddr: 0x100008288, symSize: 0x3C }
  - { offsetInCU: 0xC7A9, offset: 0xC7A9, size: 0x8, addend: 0x0, symName: __ZNSt3__125__debug_db_invalidate_allB7v160006INS_6vectorINS_6threadENS_9allocatorIS2_EEEEEEvPT_, symObjAddr: 0x4A50, symBinAddr: 0x100008370, symSize: 0x10 }
  - { offsetInCU: 0xC7DA, offset: 0xC7DA, size: 0x8, addend: 0x0, symName: __ZNSt3__122__make_exception_guardB7v160006INS_29_AllocatorDestroyRangeReverseINS_9allocatorINS_6threadEEENS_16reverse_iteratorIPS3_EEEEEENS_28__exception_guard_exceptionsIT_EESA_, symObjAddr: 0x4A60, symBinAddr: 0x100008380, symSize: 0x4C }
  - { offsetInCU: 0xC810, offset: 0xC810, size: 0x8, addend: 0x0, symName: __ZNSt3__1neB7v160006IPNS_6threadES2_EEbRKNS_16reverse_iteratorIT_EERKNS3_IT0_EE, symObjAddr: 0x4AF0, symBinAddr: 0x100008410, symSize: 0x48 }
  - { offsetInCU: 0xC85C, offset: 0xC85C, size: 0x8, addend: 0x0, symName: __ZNSt3__112__to_addressB7v160006INS_16reverse_iteratorIPNS_6threadEEEvEENS_5decayIDTclsr19__to_address_helperIT_EE6__callclsr3stdE7declvalIRKS6_EEEEE4typeES8_, symObjAddr: 0x4B38, symBinAddr: 0x100008458, symSize: 0x24 }
  - { offsetInCU: 0xC8BB, offset: 0xC8BB, size: 0x8, addend: 0x0, symName: __ZNSt3__119__allocator_destroyB7v160006INS_9allocatorINS_6threadEEENS_16reverse_iteratorINS4_IPS2_EEEES7_EEvRT_T0_T1_, symObjAddr: 0x4DE8, symBinAddr: 0x100008708, symSize: 0x70 }
  - { offsetInCU: 0xC920, offset: 0xC920, size: 0x8, addend: 0x0, symName: __ZNSt3__1neB7v160006INS_16reverse_iteratorIPNS_6threadEEES4_EEbRKNS1_IT_EERKNS1_IT0_EE, symObjAddr: 0x4E94, symBinAddr: 0x1000087B4, symSize: 0x60 }
  - { offsetInCU: 0xC96C, offset: 0xC96C, size: 0x8, addend: 0x0, symName: __ZNSt3__112__to_addressB7v160006INS_16reverse_iteratorINS1_IPNS_6threadEEEEEvEENS_5decayIDTclsr19__to_address_helperIT_EE6__callclsr3stdE7declvalIRKS7_EEEEE4typeES9_, symObjAddr: 0x4EF4, symBinAddr: 0x100008814, symSize: 0x24 }
  - { offsetInCU: 0xCA5B, offset: 0xCA5B, size: 0x8, addend: 0x0, symName: __ZNSt3__14lockB7v160006INS_5mutexES1_EEvRT_RT0_, symObjAddr: 0x52BC, symBinAddr: 0x100008BDC, symSize: 0xE0 }
  - { offsetInCU: 0xCAE5, offset: 0xCAE5, size: 0x8, addend: 0x0, symName: __ZNSt3__111this_thread9sleep_forB7v160006IxNS_5ratioILl1ELl1EEEEEvRKNS_6chrono8durationIT_T0_EE, symObjAddr: 0x53D0, symBinAddr: 0x100008CF0, symSize: 0xBC }
  - { offsetInCU: 0xCB4E, offset: 0xCB4E, size: 0x8, addend: 0x0, symName: __ZNSt3__121__libcpp_thread_yieldB7v160006Ev, symObjAddr: 0x55BC, symBinAddr: 0x100008EDC, symSize: 0x14 }
  - { offsetInCU: 0xD166, offset: 0xD166, size: 0x8, addend: 0x0, symName: __ZNSt3__122__libcpp_thread_createB7v160006EPP17_opaque_pthread_tPFPvS3_ES3_, symObjAddr: 0x5EC8, symBinAddr: 0x1000097E8, symSize: 0x38 }
  - { offsetInCU: 0xD1B2, offset: 0xD1B2, size: 0x8, addend: 0x0, symName: __ZNSt3__114__thread_proxyB7v160006INS_5tupleIJNS_10unique_ptrINS_15__thread_structENS_14default_deleteIS3_EEEEM5RobotFvvENS_17reference_wrapperIS7_EEEEEEEPvSD_, symObjAddr: 0x5F00, symBinAddr: 0x100009820, symSize: 0x90 }
  - { offsetInCU: 0xD318, offset: 0xD318, size: 0x8, addend: 0x0, symName: __ZNSt3__13getB7v160006ILm0EJNS_10unique_ptrINS_15__thread_structENS_14default_deleteIS2_EEEEM5RobotFvvENS_17reference_wrapperIS6_EEEEERNS_13tuple_elementIXT_ENS_5tupleIJDpT0_EEEE4typeERSF_, symObjAddr: 0x6604, symBinAddr: 0x100009F24, symSize: 0x24 }
  - { offsetInCU: 0xD365, offset: 0xD365, size: 0x8, addend: 0x0, symName: __ZNSt3__116__thread_executeB7v160006INS_10unique_ptrINS_15__thread_structENS_14default_deleteIS2_EEEEM5RobotFvvEJNS_17reference_wrapperIS6_EEEJLm2EEEEvRNS_5tupleIJT_T0_DpT1_EEENS_15__tuple_indicesIJXspT2_EEEE, symObjAddr: 0x6628, symBinAddr: 0x100009F48, symSize: 0x3C }
  - { offsetInCU: 0xD3C3, offset: 0xD3C3, size: 0x8, addend: 0x0, symName: __ZNSt3__116__libcpp_tls_setB7v160006EmPv, symObjAddr: 0x6664, symBinAddr: 0x100009F84, symSize: 0x2C }
  - { offsetInCU: 0xD400, offset: 0xD400, size: 0x8, addend: 0x0, symName: __ZNSt3__18__invokeB7v160006IM5RobotFvvENS_17reference_wrapperIS1_EEJEvEEDTcldscldtclsr3stdE7declvalIT0_EE3getEclsr3stdE7declvalIT_EEspclsr3stdE7declvalIT1_EEEEOS7_OS6_DpOS8_, symObjAddr: 0x66A4, symBinAddr: 0x100009FC4, symSize: 0x80 }
  - { offsetInCU: 0xD451, offset: 0xD451, size: 0x8, addend: 0x0, symName: __ZNSt3__13getB7v160006ILm1EJNS_10unique_ptrINS_15__thread_structENS_14default_deleteIS2_EEEEM5RobotFvvENS_17reference_wrapperIS6_EEEEERNS_13tuple_elementIXT_ENS_5tupleIJDpT0_EEEE4typeERSF_, symObjAddr: 0x6724, symBinAddr: 0x10000A044, symSize: 0x28 }
  - { offsetInCU: 0xD49E, offset: 0xD49E, size: 0x8, addend: 0x0, symName: __ZNSt3__13getB7v160006ILm2EJNS_10unique_ptrINS_15__thread_structENS_14default_deleteIS2_EEEEM5RobotFvvENS_17reference_wrapperIS6_EEEEERNS_13tuple_elementIXT_ENS_5tupleIJDpT0_EEEE4typeERSF_, symObjAddr: 0x674C, symBinAddr: 0x10000A06C, symSize: 0x28 }
  - { offsetInCU: 0xD4EB, offset: 0xD4EB, size: 0x8, addend: 0x0, symName: __ZNSt3__1eqB7v160006IPNS_6threadEEEbRKNS_11__wrap_iterIT_EES7_, symObjAddr: 0x6BB4, symBinAddr: 0x10000A4D4, symSize: 0x48 }
  - { offsetInCU: 0xD52E, offset: 0xD52E, size: 0x8, addend: 0x0, symName: __ZNSt3__116__pad_and_outputB7v160006IcNS_11char_traitsIcEEEENS_19ostreambuf_iteratorIT_T0_EES6_PKS4_S8_S8_RNS_8ios_baseES4_, symObjAddr: 0x6FF8, symBinAddr: 0x10000A918, symSize: 0x240 }
  - { offsetInCU: 0xD5FD, offset: 0xD5FD, size: 0x8, addend: 0x0, symName: __ZNSt3__119__debug_db_insert_cB7v160006INS_12basic_stringIcNS_11char_traitsIcEENS_9allocatorIcEEEEEEvPT_, symObjAddr: 0x74AC, symBinAddr: 0x10000ADCC, symSize: 0x10 }
  - { offsetInCU: 0xD62E, offset: 0xD62E, size: 0x8, addend: 0x0, symName: __ZNSt3__112__to_addressB7v160006IKcEEPT_S3_, symObjAddr: 0x7578, symBinAddr: 0x10000AE98, symSize: 0x14 }
  - { offsetInCU: 0xD696, offset: 0xD696, size: 0x8, addend: 0x0, symName: __ZNSt3__19use_facetB7v160006INS_5ctypeIcEEEERKT_RKNS_6localeE, symObjAddr: 0x77F8, symBinAddr: 0x10000B118, symSize: 0x2C }
  - { offsetInCU: 0xDB65, offset: 0xDB65, size: 0x8, addend: 0x0, symName: __ZNSt3__118__constexpr_strlenB7v160006EPKc, symObjAddr: 0x7890, symBinAddr: 0x10000B1B0, symSize: 0x24 }
  - { offsetInCU: 0xDF80, offset: 0xDF80, size: 0x8, addend: 0x0, symName: __ZSt28__throw_bad_array_new_lengthB7v160006v, symObjAddr: 0x1050, symBinAddr: 0x100004970, symSize: 0x34 }
  - { offsetInCU: 0xE669, offset: 0xE669, size: 0x8, addend: 0x0, symName: __ZNSt3__16vectorI5RobotNS_9allocatorIS1_EEE26__swap_out_circular_bufferERNS_14__split_bufferIS1_RS3_EE, symObjAddr: 0x20B8, symBinAddr: 0x1000059D8, symSize: 0x118 }
  - { offsetInCU: 0xE8FD, offset: 0xE8FD, size: 0x8, addend: 0x0, symName: __ZNSt3__16vectorINS_6threadENS_9allocatorIS1_EEE26__swap_out_circular_bufferERNS_14__split_bufferIS1_RS3_EE, symObjAddr: 0x42D4, symBinAddr: 0x100007BF4, symSize: 0x118 }
  - { offsetInCU: 0xE9E8, offset: 0xE9E8, size: 0x8, addend: 0x0, symName: __ZNKSt3__16chrono13__duration_ltINS0_8durationIxNS_5ratioILl1ELl1EEEEENS2_IeS4_EEEclB7v160006ERKS5_RKS6_, symObjAddr: 0x58DC, symBinAddr: 0x1000091FC, symSize: 0x6C }
  - { offsetInCU: 0xEA42, offset: 0xEA42, size: 0x8, addend: 0x0, symName: __ZNKSt3__16chrono15__duration_castINS0_8durationIxNS_5ratioILl1ELl1EEEEENS2_IxNS3_ILl1ELl1000000000EEEEENS3_ILl1000000000ELl1EEELb0ELb1EEclB7v160006ERKS5_, symObjAddr: 0x5ABC, symBinAddr: 0x1000093DC, symSize: 0x4C }
  - { offsetInCU: 0xEA8B, offset: 0xEA8B, size: 0x8, addend: 0x0, symName: __ZNKSt3__16chrono13__duration_ltINS0_8durationIxNS_5ratioILl1ELl1000000000EEEEENS2_IxNS3_ILl1ELl1EEEEEEclB7v160006ERKS5_RKS7_, symObjAddr: 0x5B08, symBinAddr: 0x100009428, symSize: 0x6C }
  - { offsetInCU: 0xEDB8, offset: 0xEDB8, size: 0x8, addend: 0x0, symName: __ZNKSt3__16chrono15__duration_castINS0_8durationIxNS_5ratioILl1ELl1000000000EEEEENS2_IxNS3_ILl1ELl1EEEEES4_Lb1ELb0EEclB7v160006ERKS5_, symObjAddr: 0x6C9C, symBinAddr: 0x10000A5BC, symSize: 0x4C }
  - { offsetInCU: 0x11092, offset: 0x11092, size: 0x8, addend: 0x0, symName: _main, symObjAddr: 0x0, symBinAddr: 0x100003920, symSize: 0xFC }
  - { offsetInCU: 0x110D7, offset: 0x110D7, size: 0x8, addend: 0x0, symName: __ZNSt3__113basic_ostreamIcNS_11char_traitsIcEEElsB7v160006EPFRS3_S4_E, symObjAddr: 0x144, symBinAddr: 0x100003A64, symSize: 0x2C }
  - { offsetInCU: 0x111D1, offset: 0x111D1, size: 0x8, addend: 0x0, symName: __ZN5ArenaC1Ei, symObjAddr: 0x1C8, symBinAddr: 0x100003AE8, symSize: 0x34 }
  - { offsetInCU: 0x11209, offset: 0x11209, size: 0x8, addend: 0x0, symName: __ZN5Arena13simulateTasksEv, symObjAddr: 0x1FC, symBinAddr: 0x100003B1C, symSize: 0x194 }
  - { offsetInCU: 0x112AA, offset: 0x112AA, size: 0x8, addend: 0x0, symName: __ZNK5Arena12getTotalTimeEv, symObjAddr: 0x390, symBinAddr: 0x100003CB0, symSize: 0x50 }
  - { offsetInCU: 0x112DE, offset: 0x112DE, size: 0x8, addend: 0x0, symName: __ZN5ArenaD1Ev, symObjAddr: 0x3E0, symBinAddr: 0x100003D00, symSize: 0x2C }
  - { offsetInCU: 0x1130A, offset: 0x1130A, size: 0x8, addend: 0x0, symName: __ZN5ArenaC2Ei, symObjAddr: 0x40C, symBinAddr: 0x100003D2C, symSize: 0x15C }
  - { offsetInCU: 0x1135E, offset: 0x1135E, size: 0x8, addend: 0x0, symName: __ZNSt3__16vectorINS_5mutexENS_9allocatorIS1_EEEC1Em, symObjAddr: 0x568, symBinAddr: 0x100003E88, symSize: 0x34 }
  - { offsetInCU: 0x11399, offset: 0x11399, size: 0x8, addend: 0x0, symName: __ZNSt3__16vectorINS_6threadENS_9allocatorIS1_EEEC1B7v160006Ev, symObjAddr: 0x59C, symBinAddr: 0x100003EBC, symSize: 0x2C }
  - { offsetInCU: 0x113C3, offset: 0x113C3, size: 0x8, addend: 0x0, symName: __ZNSt3__16vectorI5RobotNS_9allocatorIS1_EEEC1B7v160006Ev, symObjAddr: 0x5C8, symBinAddr: 0x100003EE8, symSize: 0x2C }
  - { offsetInCU: 0x113ED, offset: 0x113ED, size: 0x8, addend: 0x0, symName: __ZNSt3__16chrono10time_pointINS0_12steady_clockENS0_8durationIxNS_5ratioILl1ELl1000000000EEEEEEC1B7v160006Ev, symObjAddr: 0x5F4, symBinAddr: 0x100003F14, symSize: 0x2C }
  - { offsetInCU: 0x1141D, offset: 0x1141D, size: 0x8, addend: 0x0, symName: __ZNSt3__16vectorI5RobotNS_9allocatorIS1_EEE12emplace_backIJiRNS_5mutexES7_EEEvDpOT_, symObjAddr: 0x620, symBinAddr: 0x100003F40, symSize: 0x84 }
  - { offsetInCU: 0x11487, offset: 0x11487, size: 0x8, addend: 0x0, symName: __ZNSt3__16vectorINS_5mutexENS_9allocatorIS1_EEEixB7v160006Em, symObjAddr: 0x6A4, symBinAddr: 0x100003FC4, symSize: 0x24 }
  - { offsetInCU: 0x114BE, offset: 0x114BE, size: 0x8, addend: 0x0, symName: __ZNSt3__16vectorI5RobotNS_9allocatorIS1_EEED1B7v160006Ev, symObjAddr: 0x6C8, symBinAddr: 0x100003FE8, symSize: 0x2C }
  - { offsetInCU: 0x114E8, offset: 0x114E8, size: 0x8, addend: 0x0, symName: __ZNSt3__16vectorINS_6threadENS_9allocatorIS1_EEED1B7v160006Ev, symObjAddr: 0x6F4, symBinAddr: 0x100004014, symSize: 0x2C }
  - { offsetInCU: 0x11512, offset: 0x11512, size: 0x8, addend: 0x0, symName: __ZNSt3__16vectorINS_5mutexENS_9allocatorIS1_EEED1B7v160006Ev, symObjAddr: 0x720, symBinAddr: 0x100004040, symSize: 0x2C }
  - { offsetInCU: 0x1153C, offset: 0x1153C, size: 0x8, addend: 0x0, symName: __ZNSt3__16vectorINS_5mutexENS_9allocatorIS1_EEEC2Em, symObjAddr: 0x74C, symBinAddr: 0x10000406C, symSize: 0xE0 }
  - { offsetInCU: 0x11598, offset: 0x11598, size: 0x8, addend: 0x0, symName: __ZNSt3__117__compressed_pairIPNS_5mutexENS_9allocatorIS1_EEEC1B7v160006IDnNS_18__default_init_tagEEEOT_OT0_, symObjAddr: 0x82C, symBinAddr: 0x10000414C, symSize: 0x3C }
  - { offsetInCU: 0x115F0, offset: 0x115F0, size: 0x8, addend: 0x0, symName: __ZNSt3__16vectorINS_5mutexENS_9allocatorIS1_EEE16__destroy_vectorC1ERS4_, symObjAddr: 0x8A8, symBinAddr: 0x1000041C8, symSize: 0x34 }
  - { offsetInCU: 0x11629, offset: 0x11629, size: 0x8, addend: 0x0, symName: __ZNSt3__16vectorINS_5mutexENS_9allocatorIS1_EEE11__vallocateB7v160006Em, symObjAddr: 0x8EC, symBinAddr: 0x10000420C, symSize: 0xAC }
  - { offsetInCU: 0x1166D, offset: 0x1166D, size: 0x8, addend: 0x0, symName: __ZNSt3__16vectorINS_5mutexENS_9allocatorIS1_EEE18__construct_at_endEm, symObjAddr: 0x998, symBinAddr: 0x1000042B8, symSize: 0xC8 }
  - { offsetInCU: 0x116DF, offset: 0x116DF, size: 0x8, addend: 0x0, symName: __ZNSt3__128__exception_guard_exceptionsINS_6vectorINS_5mutexENS_9allocatorIS2_EEE16__destroy_vectorEE10__completeB7v160006Ev, symObjAddr: 0xA60, symBinAddr: 0x100004380, symSize: 0x1C }
  - { offsetInCU: 0x11705, offset: 0x11705, size: 0x8, addend: 0x0, symName: __ZNSt3__128__exception_guard_exceptionsINS_6vectorINS_5mutexENS_9allocatorIS2_EEE16__destroy_vectorEED1B7v160006Ev, symObjAddr: 0xA7C, symBinAddr: 0x10000439C, symSize: 0x2C }
  - { offsetInCU: 0x1172F, offset: 0x1172F, size: 0x8, addend: 0x0, symName: __ZNSt3__117__compressed_pairIPNS_5mutexENS_9allocatorIS1_EEEC2B7v160006IDnNS_18__default_init_tagEEEOT_OT0_, symObjAddr: 0xAA8, symBinAddr: 0x1000043C8, symSize: 0x40 }
  - { offsetInCU: 0x11787, offset: 0x11787, size: 0x8, addend: 0x0, symName: __ZNSt3__122__compressed_pair_elemIPNS_5mutexELi0ELb0EEC2B7v160006IDnvEEOT_, symObjAddr: 0xAE8, symBinAddr: 0x100004408, symSize: 0x1C }
  - { offsetInCU: 0x117C9, offset: 0x117C9, size: 0x8, addend: 0x0, symName: __ZNSt3__122__compressed_pair_elemINS_9allocatorINS_5mutexEEELi1ELb1EEC2B7v160006ENS_18__default_init_tagE, symObjAddr: 0xB04, symBinAddr: 0x100004424, symSize: 0x2C }
  - { offsetInCU: 0x117FE, offset: 0x117FE, size: 0x8, addend: 0x0, symName: __ZNSt3__19allocatorINS_5mutexEEC2B7v160006Ev, symObjAddr: 0xB30, symBinAddr: 0x100004450, symSize: 0x2C }
  - { offsetInCU: 0x11828, offset: 0x11828, size: 0x8, addend: 0x0, symName: __ZNSt3__116__non_trivial_ifILb1ENS_9allocatorINS_5mutexEEEEC2B7v160006Ev, symObjAddr: 0xB5C, symBinAddr: 0x10000447C, symSize: 0x14 }
  - { offsetInCU: 0x11852, offset: 0x11852, size: 0x8, addend: 0x0, symName: __ZNSt3__128__exception_guard_exceptionsINS_6vectorINS_5mutexENS_9allocatorIS2_EEE16__destroy_vectorEEC1B7v160006ES6_, symObjAddr: 0xB70, symBinAddr: 0x100004490, symSize: 0x34 }
  - { offsetInCU: 0x1188A, offset: 0x1188A, size: 0x8, addend: 0x0, symName: __ZNSt3__128__exception_guard_exceptionsINS_6vectorINS_5mutexENS_9allocatorIS2_EEE16__destroy_vectorEEC2B7v160006ES6_, symObjAddr: 0xBA4, symBinAddr: 0x1000044C4, symSize: 0x24 }
  - { offsetInCU: 0x118C2, offset: 0x118C2, size: 0x8, addend: 0x0, symName: __ZNSt3__16vectorINS_5mutexENS_9allocatorIS1_EEE16__destroy_vectorC2ERS4_, symObjAddr: 0xBC8, symBinAddr: 0x1000044E8, symSize: 0x20 }
  - { offsetInCU: 0x118FB, offset: 0x118FB, size: 0x8, addend: 0x0, symName: __ZNKSt3__16vectorINS_5mutexENS_9allocatorIS1_EEE8max_sizeEv, symObjAddr: 0xBE8, symBinAddr: 0x100004508, symSize: 0x60 }
  - { offsetInCU: 0x11923, offset: 0x11923, size: 0x8, addend: 0x0, symName: __ZNKSt3__16vectorINS_5mutexENS_9allocatorIS1_EEE20__throw_length_errorB7v160006Ev, symObjAddr: 0xC48, symBinAddr: 0x100004568, symSize: 0x1C }
  - { offsetInCU: 0x11949, offset: 0x11949, size: 0x8, addend: 0x0, symName: __ZNSt3__16vectorINS_5mutexENS_9allocatorIS1_EEE7__allocB7v160006Ev, symObjAddr: 0xCA4, symBinAddr: 0x1000045C4, symSize: 0x28 }
  - { offsetInCU: 0x1196F, offset: 0x1196F, size: 0x8, addend: 0x0, symName: __ZNSt3__16vectorINS_5mutexENS_9allocatorIS1_EEE9__end_capB7v160006Ev, symObjAddr: 0xCCC, symBinAddr: 0x1000045EC, symSize: 0x28 }
  - { offsetInCU: 0x11995, offset: 0x11995, size: 0x8, addend: 0x0, symName: __ZNKSt3__16vectorINS_5mutexENS_9allocatorIS1_EEE14__annotate_newB7v160006Em, symObjAddr: 0xCF4, symBinAddr: 0x100004614, symSize: 0xAC }
  - { offsetInCU: 0x119D4, offset: 0x119D4, size: 0x8, addend: 0x0, symName: __ZNSt3__116allocator_traitsINS_9allocatorINS_5mutexEEEE8max_sizeB7v160006IS3_vEEmRKS3_, symObjAddr: 0xDCC, symBinAddr: 0x1000046EC, symSize: 0x24 }
  - { offsetInCU: 0x11A02, offset: 0x11A02, size: 0x8, addend: 0x0, symName: __ZNKSt3__16vectorINS_5mutexENS_9allocatorIS1_EEE7__allocB7v160006Ev, symObjAddr: 0xDF0, symBinAddr: 0x100004710, symSize: 0x28 }
  - { offsetInCU: 0x11A28, offset: 0x11A28, size: 0x8, addend: 0x0, symName: __ZNSt3__114numeric_limitsIlE3maxB7v160006Ev, symObjAddr: 0xE18, symBinAddr: 0x100004738, symSize: 0x14 }
  - { offsetInCU: 0x11A50, offset: 0x11A50, size: 0x8, addend: 0x0, symName: __ZNKSt3__16__lessImmEclB7v160006ERKmS3_, symObjAddr: 0xE8C, symBinAddr: 0x1000047AC, symSize: 0x34 }
  - { offsetInCU: 0x11A92, offset: 0x11A92, size: 0x8, addend: 0x0, symName: __ZNKSt3__19allocatorINS_5mutexEE8max_sizeB7v160006Ev, symObjAddr: 0xEC0, symBinAddr: 0x1000047E0, symSize: 0x14 }
  - { offsetInCU: 0x11AB8, offset: 0x11AB8, size: 0x8, addend: 0x0, symName: __ZNKSt3__117__compressed_pairIPNS_5mutexENS_9allocatorIS1_EEE6secondB7v160006Ev, symObjAddr: 0xED4, symBinAddr: 0x1000047F4, symSize: 0x24 }
  - { offsetInCU: 0x11ADE, offset: 0x11ADE, size: 0x8, addend: 0x0, symName: __ZNKSt3__122__compressed_pair_elemINS_9allocatorINS_5mutexEEELi1ELb1EE5__getB7v160006Ev, symObjAddr: 0xEF8, symBinAddr: 0x100004818, symSize: 0x14 }
  - { offsetInCU: 0x11B04, offset: 0x11B04, size: 0x8, addend: 0x0, symName: __ZNSt3__123__libcpp_numeric_limitsIlLb1EE3maxB7v160006Ev, symObjAddr: 0xF0C, symBinAddr: 0x10000482C, symSize: 0x8 }
  - { offsetInCU: 0x11B18, offset: 0x11B18, size: 0x8, addend: 0x0, symName: __ZNSt12length_errorC1B7v160006EPKc, symObjAddr: 0xF78, symBinAddr: 0x100004898, symSize: 0x34 }
  - { offsetInCU: 0x11B50, offset: 0x11B50, size: 0x8, addend: 0x0, symName: __ZNSt12length_errorC2B7v160006EPKc, symObjAddr: 0xFAC, symBinAddr: 0x1000048CC, symSize: 0x4C }
  - { offsetInCU: 0x11B88, offset: 0x11B88, size: 0x8, addend: 0x0, symName: __ZNSt3__19allocatorINS_5mutexEE8allocateB7v160006Em, symObjAddr: 0xFF8, symBinAddr: 0x100004918, symSize: 0x58 }
  - { offsetInCU: 0x11BBC, offset: 0x11BBC, size: 0x8, addend: 0x0, symName: __ZNSt3__117__compressed_pairIPNS_5mutexENS_9allocatorIS1_EEE6secondB7v160006Ev, symObjAddr: 0x10D0, symBinAddr: 0x1000049F0, symSize: 0x24 }
  - { offsetInCU: 0x11BE2, offset: 0x11BE2, size: 0x8, addend: 0x0, symName: __ZNSt3__122__compressed_pair_elemINS_9allocatorINS_5mutexEEELi1ELb1EE5__getB7v160006Ev, symObjAddr: 0x10F4, symBinAddr: 0x100004A14, symSize: 0x14 }
  - { offsetInCU: 0x11C08, offset: 0x11C08, size: 0x8, addend: 0x0, symName: __ZNSt3__117__compressed_pairIPNS_5mutexENS_9allocatorIS1_EEE5firstB7v160006Ev, symObjAddr: 0x1108, symBinAddr: 0x100004A28, symSize: 0x24 }
  - { offsetInCU: 0x11C2E, offset: 0x11C2E, size: 0x8, addend: 0x0, symName: __ZNSt3__122__compressed_pair_elemIPNS_5mutexELi0ELb0EE5__getB7v160006Ev, symObjAddr: 0x112C, symBinAddr: 0x100004A4C, symSize: 0x14 }
  - { offsetInCU: 0x11C54, offset: 0x11C54, size: 0x8, addend: 0x0, symName: __ZNKSt3__16vectorINS_5mutexENS_9allocatorIS1_EEE31__annotate_contiguous_containerB7v160006EPKvS6_S6_S6_, symObjAddr: 0x1140, symBinAddr: 0x100004A60, symSize: 0x20 }
  - { offsetInCU: 0x11CA6, offset: 0x11CA6, size: 0x8, addend: 0x0, symName: __ZNKSt3__16vectorINS_5mutexENS_9allocatorIS1_EEE4dataB7v160006Ev, symObjAddr: 0x1160, symBinAddr: 0x100004A80, symSize: 0x28 }
  - { offsetInCU: 0x11CCC, offset: 0x11CCC, size: 0x8, addend: 0x0, symName: __ZNKSt3__16vectorINS_5mutexENS_9allocatorIS1_EEE8capacityB7v160006Ev, symObjAddr: 0x1188, symBinAddr: 0x100004AA8, symSize: 0x40 }
  - { offsetInCU: 0x11CF2, offset: 0x11CF2, size: 0x8, addend: 0x0, symName: __ZNKSt3__16vectorINS_5mutexENS_9allocatorIS1_EEE9__end_capB7v160006Ev, symObjAddr: 0x11DC, symBinAddr: 0x100004AFC, symSize: 0x28 }
  - { offsetInCU: 0x11D18, offset: 0x11D18, size: 0x8, addend: 0x0, symName: __ZNKSt3__117__compressed_pairIPNS_5mutexENS_9allocatorIS1_EEE5firstB7v160006Ev, symObjAddr: 0x1204, symBinAddr: 0x100004B24, symSize: 0x24 }
  - { offsetInCU: 0x11D3E, offset: 0x11D3E, size: 0x8, addend: 0x0, symName: __ZNKSt3__122__compressed_pair_elemIPNS_5mutexELi0ELb0EE5__getB7v160006Ev, symObjAddr: 0x1228, symBinAddr: 0x100004B48, symSize: 0x14 }
  - { offsetInCU: 0x11D7D, offset: 0x11D7D, size: 0x8, addend: 0x0, symName: __ZNSt3__16vectorINS_5mutexENS_9allocatorIS1_EEE21_ConstructTransactionC1B7v160006ERS4_m, symObjAddr: 0x123C, symBinAddr: 0x100004B5C, symSize: 0x3C }
  - { offsetInCU: 0x11DC5, offset: 0x11DC5, size: 0x8, addend: 0x0, symName: __ZNSt3__116allocator_traitsINS_9allocatorINS_5mutexEEEE9constructB7v160006IS2_JEvEEvRS3_PT_DpOT0_, symObjAddr: 0x1278, symBinAddr: 0x100004B98, symSize: 0x2C }
  - { offsetInCU: 0x11E07, offset: 0x11E07, size: 0x8, addend: 0x0, symName: __ZNSt3__16vectorINS_5mutexENS_9allocatorIS1_EEE21_ConstructTransactionD1B7v160006Ev, symObjAddr: 0x12A4, symBinAddr: 0x100004BC4, symSize: 0x2C }
  - { offsetInCU: 0x11E31, offset: 0x11E31, size: 0x8, addend: 0x0, symName: __ZNSt3__16vectorINS_5mutexENS_9allocatorIS1_EEE21_ConstructTransactionC2B7v160006ERS4_m, symObjAddr: 0x12D0, symBinAddr: 0x100004BF0, symSize: 0x44 }
  - { offsetInCU: 0x11E79, offset: 0x11E79, size: 0x8, addend: 0x0, symName: __ZNSt3__19allocatorINS_5mutexEE9constructB7v160006IS1_JEEEvPT_DpOT0_, symObjAddr: 0x1314, symBinAddr: 0x100004C34, symSize: 0x3C }
  - { offsetInCU: 0x11EBB, offset: 0x11EBB, size: 0x8, addend: 0x0, symName: __ZNSt3__15mutexC1B7v160006Ev, symObjAddr: 0x1350, symBinAddr: 0x100004C70, symSize: 0x2C }
  - { offsetInCU: 0x11EE5, offset: 0x11EE5, size: 0x8, addend: 0x0, symName: __ZNSt3__15mutexC2B7v160006Ev, symObjAddr: 0x137C, symBinAddr: 0x100004C9C, symSize: 0x44 }
  - { offsetInCU: 0x11F0F, offset: 0x11F0F, size: 0x8, addend: 0x0, symName: __ZNSt3__16vectorINS_5mutexENS_9allocatorIS1_EEE21_ConstructTransactionD2B7v160006Ev, symObjAddr: 0x13C0, symBinAddr: 0x100004CE0, symSize: 0x20 }
  - { offsetInCU: 0x11F39, offset: 0x11F39, size: 0x8, addend: 0x0, symName: __ZNSt3__128__exception_guard_exceptionsINS_6vectorINS_5mutexENS_9allocatorIS2_EEE16__destroy_vectorEED2B7v160006Ev, symObjAddr: 0x13E0, symBinAddr: 0x100004D00, symSize: 0x50 }
  - { offsetInCU: 0x11F63, offset: 0x11F63, size: 0x8, addend: 0x0, symName: __ZNSt3__16vectorINS_5mutexENS_9allocatorIS1_EEE16__destroy_vectorclB7v160006Ev, symObjAddr: 0x1430, symBinAddr: 0x100004D50, symSize: 0x9C }
  - { offsetInCU: 0x11F89, offset: 0x11F89, size: 0x8, addend: 0x0, symName: __ZNKSt3__16vectorINS_5mutexENS_9allocatorIS1_EEE17__annotate_deleteB7v160006Ev, symObjAddr: 0x14CC, symBinAddr: 0x100004DEC, symSize: 0xB8 }
  - { offsetInCU: 0x11FAF, offset: 0x11FAF, size: 0x8, addend: 0x0, symName: __ZNSt3__16vectorINS_5mutexENS_9allocatorIS1_EEE7__clearB7v160006Ev, symObjAddr: 0x1594, symBinAddr: 0x100004EB4, symSize: 0x28 }
  - { offsetInCU: 0x11FD5, offset: 0x11FD5, size: 0x8, addend: 0x0, symName: __ZNSt3__116allocator_traitsINS_9allocatorINS_5mutexEEEE10deallocateB7v160006ERS3_PS2_m, symObjAddr: 0x15BC, symBinAddr: 0x100004EDC, symSize: 0x34 }
  - { offsetInCU: 0x12017, offset: 0x12017, size: 0x8, addend: 0x0, symName: __ZNKSt3__16vectorINS_5mutexENS_9allocatorIS1_EEE4sizeB7v160006Ev, symObjAddr: 0x15F0, symBinAddr: 0x100004F10, symSize: 0x28 }
  - { offsetInCU: 0x1203D, offset: 0x1203D, size: 0x8, addend: 0x0, symName: __ZNSt3__16vectorINS_5mutexENS_9allocatorIS1_EEE22__base_destruct_at_endB7v160006EPS1_, symObjAddr: 0x1618, symBinAddr: 0x100004F38, symSize: 0x8C }
  - { offsetInCU: 0x12081, offset: 0x12081, size: 0x8, addend: 0x0, symName: __ZNSt3__116allocator_traitsINS_9allocatorINS_5mutexEEEE7destroyB7v160006IS2_vEEvRS3_PT_, symObjAddr: 0x16A4, symBinAddr: 0x100004FC4, symSize: 0x2C }
  - { offsetInCU: 0x120BE, offset: 0x120BE, size: 0x8, addend: 0x0, symName: __ZNSt3__19allocatorINS_5mutexEE7destroyB7v160006EPS1_, symObjAddr: 0x16D0, symBinAddr: 0x100004FF0, symSize: 0x28 }
  - { offsetInCU: 0x120F2, offset: 0x120F2, size: 0x8, addend: 0x0, symName: __ZNSt3__19allocatorINS_5mutexEE10deallocateB7v160006EPS1_m, symObjAddr: 0x16F8, symBinAddr: 0x100005018, symSize: 0x40 }
  - { offsetInCU: 0x12134, offset: 0x12134, size: 0x8, addend: 0x0, symName: __ZNSt3__16vectorINS_6threadENS_9allocatorIS1_EEEC2B7v160006Ev, symObjAddr: 0x17B4, symBinAddr: 0x1000050D4, symSize: 0x58 }
  - { offsetInCU: 0x1215E, offset: 0x1215E, size: 0x8, addend: 0x0, symName: __ZNSt3__117__compressed_pairIPNS_6threadENS_9allocatorIS1_EEEC1B7v160006IDnNS_18__default_init_tagEEEOT_OT0_, symObjAddr: 0x180C, symBinAddr: 0x10000512C, symSize: 0x3C }
  - { offsetInCU: 0x121B6, offset: 0x121B6, size: 0x8, addend: 0x0, symName: __ZNSt3__117__compressed_pairIPNS_6threadENS_9allocatorIS1_EEEC2B7v160006IDnNS_18__default_init_tagEEEOT_OT0_, symObjAddr: 0x1858, symBinAddr: 0x100005178, symSize: 0x40 }
  - { offsetInCU: 0x1220E, offset: 0x1220E, size: 0x8, addend: 0x0, symName: __ZNSt3__122__compressed_pair_elemIPNS_6threadELi0ELb0EEC2B7v160006IDnvEEOT_, symObjAddr: 0x1898, symBinAddr: 0x1000051B8, symSize: 0x1C }
  - { offsetInCU: 0x12250, offset: 0x12250, size: 0x8, addend: 0x0, symName: __ZNSt3__122__compressed_pair_elemINS_9allocatorINS_6threadEEELi1ELb1EEC2B7v160006ENS_18__default_init_tagE, symObjAddr: 0x18B4, symBinAddr: 0x1000051D4, symSize: 0x2C }
  - { offsetInCU: 0x12285, offset: 0x12285, size: 0x8, addend: 0x0, symName: __ZNSt3__19allocatorINS_6threadEEC2B7v160006Ev, symObjAddr: 0x18E0, symBinAddr: 0x100005200, symSize: 0x2C }
  - { offsetInCU: 0x122AF, offset: 0x122AF, size: 0x8, addend: 0x0, symName: __ZNSt3__116__non_trivial_ifILb1ENS_9allocatorINS_6threadEEEEC2B7v160006Ev, symObjAddr: 0x190C, symBinAddr: 0x10000522C, symSize: 0x14 }
  - { offsetInCU: 0x122D9, offset: 0x122D9, size: 0x8, addend: 0x0, symName: __ZNSt3__16vectorI5RobotNS_9allocatorIS1_EEEC2B7v160006Ev, symObjAddr: 0x1920, symBinAddr: 0x100005240, symSize: 0x58 }
  - { offsetInCU: 0x12303, offset: 0x12303, size: 0x8, addend: 0x0, symName: __ZNSt3__117__compressed_pairIP5RobotNS_9allocatorIS1_EEEC1B7v160006IDnNS_18__default_init_tagEEEOT_OT0_, symObjAddr: 0x1978, symBinAddr: 0x100005298, symSize: 0x3C }
  - { offsetInCU: 0x1235B, offset: 0x1235B, size: 0x8, addend: 0x0, symName: __ZNSt3__117__compressed_pairIP5RobotNS_9allocatorIS1_EEEC2B7v160006IDnNS_18__default_init_tagEEEOT_OT0_, symObjAddr: 0x19C4, symBinAddr: 0x1000052E4, symSize: 0x40 }
  - { offsetInCU: 0x123B3, offset: 0x123B3, size: 0x8, addend: 0x0, symName: __ZNSt3__122__compressed_pair_elemIP5RobotLi0ELb0EEC2B7v160006IDnvEEOT_, symObjAddr: 0x1A04, symBinAddr: 0x100005324, symSize: 0x1C }
  - { offsetInCU: 0x123F5, offset: 0x123F5, size: 0x8, addend: 0x0, symName: __ZNSt3__122__compressed_pair_elemINS_9allocatorI5RobotEELi1ELb1EEC2B7v160006ENS_18__default_init_tagE, symObjAddr: 0x1A20, symBinAddr: 0x100005340, symSize: 0x2C }
  - { offsetInCU: 0x1242A, offset: 0x1242A, size: 0x8, addend: 0x0, symName: __ZNSt3__19allocatorI5RobotEC2B7v160006Ev, symObjAddr: 0x1A4C, symBinAddr: 0x10000536C, symSize: 0x2C }
  - { offsetInCU: 0x12454, offset: 0x12454, size: 0x8, addend: 0x0, symName: __ZNSt3__116__non_trivial_ifILb1ENS_9allocatorI5RobotEEEC2B7v160006Ev, symObjAddr: 0x1A78, symBinAddr: 0x100005398, symSize: 0x14 }
  - { offsetInCU: 0x1247E, offset: 0x1247E, size: 0x8, addend: 0x0, symName: __ZNSt3__16chrono10time_pointINS0_12steady_clockENS0_8durationIxNS_5ratioILl1ELl1000000000EEEEEEC2B7v160006Ev, symObjAddr: 0x1A8C, symBinAddr: 0x1000053AC, symSize: 0x34 }
  - { offsetInCU: 0x124A8, offset: 0x124A8, size: 0x8, addend: 0x0, symName: __ZNSt3__16chrono8durationIxNS_5ratioILl1ELl1000000000EEEE4zeroB7v160006Ev, symObjAddr: 0x1AC0, symBinAddr: 0x1000053E0, symSize: 0x3C }
  - { offsetInCU: 0x124BC, offset: 0x124BC, size: 0x8, addend: 0x0, symName: __ZNSt3__16chrono15duration_valuesIxE4zeroB7v160006Ev, symObjAddr: 0x1AFC, symBinAddr: 0x10000541C, symSize: 0x8 }
  - { offsetInCU: 0x124DF, offset: 0x124DF, size: 0x8, addend: 0x0, symName: __ZNSt3__16chrono8durationIxNS_5ratioILl1ELl1000000000EEEEC1B7v160006IxEERKT_PNS_9enable_ifIXaasr14is_convertibleIS8_xEE5valueooL_ZNS_17integral_constantIbLb0EE5valueEEntsr23treat_as_floating_pointIS6_EE5valueEvE4typeE, symObjAddr: 0x1B04, symBinAddr: 0x100005424, symSize: 0x3C }
  - { offsetInCU: 0x1252B, offset: 0x1252B, size: 0x8, addend: 0x0, symName: __ZNSt3__16chrono8durationIxNS_5ratioILl1ELl1000000000EEEEC2B7v160006IxEERKT_PNS_9enable_ifIXaasr14is_convertibleIS8_xEE5valueooL_ZNS_17integral_constantIbLb0EE5valueEEntsr23treat_as_floating_pointIS6_EE5valueEvE4typeE, symObjAddr: 0x1B40, symBinAddr: 0x100005460, symSize: 0x28 }
  - { offsetInCU: 0x12577, offset: 0x12577, size: 0x8, addend: 0x0, symName: __ZNSt3__16vectorI5RobotNS_9allocatorIS1_EEE9__end_capB7v160006Ev, symObjAddr: 0x1B68, symBinAddr: 0x100005488, symSize: 0x28 }
  - { offsetInCU: 0x1259D, offset: 0x1259D, size: 0x8, addend: 0x0, symName: __ZNSt3__16vectorI5RobotNS_9allocatorIS1_EEE22__construct_one_at_endB7v160006IJiRNS_5mutexES7_EEEvDpOT_, symObjAddr: 0x1B90, symBinAddr: 0x1000054B0, symSize: 0xA0 }
  - { offsetInCU: 0x12614, offset: 0x12614, size: 0x8, addend: 0x0, symName: __ZNSt3__16vectorI5RobotNS_9allocatorIS1_EEE24__emplace_back_slow_pathIJiRNS_5mutexES7_EEEvDpOT_, symObjAddr: 0x1C30, symBinAddr: 0x100005550, symSize: 0xE8 }
  - { offsetInCU: 0x1269C, offset: 0x1269C, size: 0x8, addend: 0x0, symName: __ZNSt3__117__compressed_pairIP5RobotNS_9allocatorIS1_EEE5firstB7v160006Ev, symObjAddr: 0x1D18, symBinAddr: 0x100005638, symSize: 0x24 }
  - { offsetInCU: 0x126C2, offset: 0x126C2, size: 0x8, addend: 0x0, symName: __ZNSt3__122__compressed_pair_elemIP5RobotLi0ELb0EE5__getB7v160006Ev, symObjAddr: 0x1D3C, symBinAddr: 0x10000565C, symSize: 0x14 }
  - { offsetInCU: 0x12701, offset: 0x12701, size: 0x8, addend: 0x0, symName: __ZNSt3__16vectorI5RobotNS_9allocatorIS1_EEE21_ConstructTransactionC1B7v160006ERS4_m, symObjAddr: 0x1D50, symBinAddr: 0x100005670, symSize: 0x3C }
  - { offsetInCU: 0x12749, offset: 0x12749, size: 0x8, addend: 0x0, symName: __ZNSt3__116allocator_traitsINS_9allocatorI5RobotEEE9constructB7v160006IS2_JiRNS_5mutexES7_EvEEvRS3_PT_DpOT0_, symObjAddr: 0x1D8C, symBinAddr: 0x1000056AC, symSize: 0x44 }
  - { offsetInCU: 0x127C8, offset: 0x127C8, size: 0x8, addend: 0x0, symName: __ZNSt3__16vectorI5RobotNS_9allocatorIS1_EEE7__allocB7v160006Ev, symObjAddr: 0x1DD0, symBinAddr: 0x1000056F0, symSize: 0x28 }
  - { offsetInCU: 0x127EE, offset: 0x127EE, size: 0x8, addend: 0x0, symName: __ZNSt3__16vectorI5RobotNS_9allocatorIS1_EEE21_ConstructTransactionD1B7v160006Ev, symObjAddr: 0x1E0C, symBinAddr: 0x10000572C, symSize: 0x2C }
  - { offsetInCU: 0x12818, offset: 0x12818, size: 0x8, addend: 0x0, symName: __ZNSt3__16vectorI5RobotNS_9allocatorIS1_EEE21_ConstructTransactionC2B7v160006ERS4_m, symObjAddr: 0x1E38, symBinAddr: 0x100005758, symSize: 0x44 }
  - { offsetInCU: 0x12860, offset: 0x12860, size: 0x8, addend: 0x0, symName: __ZNSt3__19allocatorI5RobotE9constructB7v160006IS1_JiRNS_5mutexES5_EEEvPT_DpOT0_, symObjAddr: 0x1E7C, symBinAddr: 0x10000579C, symSize: 0x44 }
  - { offsetInCU: 0x128DC, offset: 0x128DC, size: 0x8, addend: 0x0, symName: __ZN5RobotC1EiRNSt3__15mutexES2_, symObjAddr: 0x1EC0, symBinAddr: 0x1000057E0, symSize: 0x44 }
  - { offsetInCU: 0x12930, offset: 0x12930, size: 0x8, addend: 0x0, symName: __ZN5RobotC2EiRNSt3__15mutexES2_, symObjAddr: 0x1F04, symBinAddr: 0x100005824, symSize: 0x3C }
  - { offsetInCU: 0x12984, offset: 0x12984, size: 0x8, addend: 0x0, symName: __ZNSt3__117__compressed_pairIP5RobotNS_9allocatorIS1_EEE6secondB7v160006Ev, symObjAddr: 0x1F40, symBinAddr: 0x100005860, symSize: 0x24 }
  - { offsetInCU: 0x129AA, offset: 0x129AA, size: 0x8, addend: 0x0, symName: __ZNSt3__122__compressed_pair_elemINS_9allocatorI5RobotEELi1ELb1EE5__getB7v160006Ev, symObjAddr: 0x1F64, symBinAddr: 0x100005884, symSize: 0x14 }
  - { offsetInCU: 0x129D0, offset: 0x129D0, size: 0x8, addend: 0x0, symName: __ZNSt3__16vectorI5RobotNS_9allocatorIS1_EEE21_ConstructTransactionD2B7v160006Ev, symObjAddr: 0x1F78, symBinAddr: 0x100005898, symSize: 0x20 }
  - { offsetInCU: 0x129FA, offset: 0x129FA, size: 0x8, addend: 0x0, symName: __ZNKSt3__16vectorI5RobotNS_9allocatorIS1_EEE11__recommendB7v160006Em, symObjAddr: 0x1F98, symBinAddr: 0x1000058B8, symSize: 0xB4 }
  - { offsetInCU: 0x12A4F, offset: 0x12A4F, size: 0x8, addend: 0x0, symName: __ZNKSt3__16vectorI5RobotNS_9allocatorIS1_EEE4sizeB7v160006Ev, symObjAddr: 0x204C, symBinAddr: 0x10000596C, symSize: 0x28 }
  - { offsetInCU: 0x12A75, offset: 0x12A75, size: 0x8, addend: 0x0, symName: __ZNSt3__114__split_bufferI5RobotRNS_9allocatorIS1_EEEC1EmmS4_, symObjAddr: 0x2074, symBinAddr: 0x100005994, symSize: 0x44 }
  - { offsetInCU: 0x12ACB, offset: 0x12ACB, size: 0x8, addend: 0x0, symName: __ZNSt3__114__split_bufferI5RobotRNS_9allocatorIS1_EEED1Ev, symObjAddr: 0x21D0, symBinAddr: 0x100005AF0, symSize: 0x2C }
  - { offsetInCU: 0x12AF7, offset: 0x12AF7, size: 0x8, addend: 0x0, symName: __ZNKSt3__16vectorI5RobotNS_9allocatorIS1_EEE8max_sizeEv, symObjAddr: 0x21FC, symBinAddr: 0x100005B1C, symSize: 0x60 }
  - { offsetInCU: 0x12B1F, offset: 0x12B1F, size: 0x8, addend: 0x0, symName: __ZNKSt3__16vectorI5RobotNS_9allocatorIS1_EEE20__throw_length_errorB7v160006Ev, symObjAddr: 0x225C, symBinAddr: 0x100005B7C, symSize: 0x1C }
  - { offsetInCU: 0x12B45, offset: 0x12B45, size: 0x8, addend: 0x0, symName: __ZNKSt3__16vectorI5RobotNS_9allocatorIS1_EEE8capacityB7v160006Ev, symObjAddr: 0x2278, symBinAddr: 0x100005B98, symSize: 0x40 }
  - { offsetInCU: 0x12B75, offset: 0x12B75, size: 0x8, addend: 0x0, symName: __ZNSt3__116allocator_traitsINS_9allocatorI5RobotEEE8max_sizeB7v160006IS3_vEEmRKS3_, symObjAddr: 0x22E4, symBinAddr: 0x100005C04, symSize: 0x24 }
  - { offsetInCU: 0x12BA3, offset: 0x12BA3, size: 0x8, addend: 0x0, symName: __ZNKSt3__16vectorI5RobotNS_9allocatorIS1_EEE7__allocB7v160006Ev, symObjAddr: 0x2308, symBinAddr: 0x100005C28, symSize: 0x28 }
  - { offsetInCU: 0x12BC9, offset: 0x12BC9, size: 0x8, addend: 0x0, symName: __ZNKSt3__19allocatorI5RobotE8max_sizeB7v160006Ev, symObjAddr: 0x2330, symBinAddr: 0x100005C50, symSize: 0x14 }
  - { offsetInCU: 0x12BEF, offset: 0x12BEF, size: 0x8, addend: 0x0, symName: __ZNKSt3__117__compressed_pairIP5RobotNS_9allocatorIS1_EEE6secondB7v160006Ev, symObjAddr: 0x2344, symBinAddr: 0x100005C64, symSize: 0x24 }
  - { offsetInCU: 0x12C15, offset: 0x12C15, size: 0x8, addend: 0x0, symName: __ZNKSt3__122__compressed_pair_elemINS_9allocatorI5RobotEELi1ELb1EE5__getB7v160006Ev, symObjAddr: 0x2368, symBinAddr: 0x100005C88, symSize: 0x14 }
  - { offsetInCU: 0x12C3B, offset: 0x12C3B, size: 0x8, addend: 0x0, symName: __ZNKSt3__16vectorI5RobotNS_9allocatorIS1_EEE9__end_capB7v160006Ev, symObjAddr: 0x237C, symBinAddr: 0x100005C9C, symSize: 0x28 }
  - { offsetInCU: 0x12C61, offset: 0x12C61, size: 0x8, addend: 0x0, symName: __ZNKSt3__117__compressed_pairIP5RobotNS_9allocatorIS1_EEE5firstB7v160006Ev, symObjAddr: 0x23A4, symBinAddr: 0x100005CC4, symSize: 0x24 }
  - { offsetInCU: 0x12C87, offset: 0x12C87, size: 0x8, addend: 0x0, symName: __ZNKSt3__122__compressed_pair_elemIP5RobotLi0ELb0EE5__getB7v160006Ev, symObjAddr: 0x23C8, symBinAddr: 0x100005CE8, symSize: 0x14 }
  - { offsetInCU: 0x12CAD, offset: 0x12CAD, size: 0x8, addend: 0x0, symName: __ZNSt3__114__split_bufferI5RobotRNS_9allocatorIS1_EEEC2EmmS4_, symObjAddr: 0x2430, symBinAddr: 0x100005D50, symSize: 0xD4 }
  - { offsetInCU: 0x12D20, offset: 0x12D20, size: 0x8, addend: 0x0, symName: __ZNSt3__117__compressed_pairIP5RobotRNS_9allocatorIS1_EEEC1B7v160006IDnS5_EEOT_OT0_, symObjAddr: 0x2504, symBinAddr: 0x100005E24, symSize: 0x3C }
  - { offsetInCU: 0x12D78, offset: 0x12D78, size: 0x8, addend: 0x0, symName: __ZNSt3__114__split_bufferI5RobotRNS_9allocatorIS1_EEE7__allocB7v160006Ev, symObjAddr: 0x2580, symBinAddr: 0x100005EA0, symSize: 0x28 }
  - { offsetInCU: 0x12D9E, offset: 0x12D9E, size: 0x8, addend: 0x0, symName: __ZNSt3__114__split_bufferI5RobotRNS_9allocatorIS1_EEE9__end_capB7v160006Ev, symObjAddr: 0x25A8, symBinAddr: 0x100005EC8, symSize: 0x28 }
  - { offsetInCU: 0x12DC4, offset: 0x12DC4, size: 0x8, addend: 0x0, symName: __ZNSt3__117__compressed_pairIP5RobotRNS_9allocatorIS1_EEEC2B7v160006IDnS5_EEOT_OT0_, symObjAddr: 0x25D0, symBinAddr: 0x100005EF0, symSize: 0x48 }
  - { offsetInCU: 0x12E1C, offset: 0x12E1C, size: 0x8, addend: 0x0, symName: __ZNSt3__122__compressed_pair_elemIRNS_9allocatorI5RobotEELi1ELb0EEC2B7v160006IS4_vEEOT_, symObjAddr: 0x2618, symBinAddr: 0x100005F38, symSize: 0x20 }
  - { offsetInCU: 0x12E5E, offset: 0x12E5E, size: 0x8, addend: 0x0, symName: __ZNSt3__19allocatorI5RobotE8allocateB7v160006Em, symObjAddr: 0x2638, symBinAddr: 0x100005F58, symSize: 0x58 }
  - { offsetInCU: 0x12E92, offset: 0x12E92, size: 0x8, addend: 0x0, symName: __ZNSt3__117__compressed_pairIP5RobotRNS_9allocatorIS1_EEE6secondB7v160006Ev, symObjAddr: 0x2690, symBinAddr: 0x100005FB0, symSize: 0x28 }
  - { offsetInCU: 0x12EB8, offset: 0x12EB8, size: 0x8, addend: 0x0, symName: __ZNSt3__122__compressed_pair_elemIRNS_9allocatorI5RobotEELi1ELb0EE5__getB7v160006Ev, symObjAddr: 0x26B8, symBinAddr: 0x100005FD8, symSize: 0x18 }
  - { offsetInCU: 0x12EDE, offset: 0x12EDE, size: 0x8, addend: 0x0, symName: __ZNSt3__117__compressed_pairIP5RobotRNS_9allocatorIS1_EEE5firstB7v160006Ev, symObjAddr: 0x26D0, symBinAddr: 0x100005FF0, symSize: 0x24 }
  - { offsetInCU: 0x12F04, offset: 0x12F04, size: 0x8, addend: 0x0, symName: __ZNKSt3__16vectorI5RobotNS_9allocatorIS1_EEE17__annotate_deleteB7v160006Ev, symObjAddr: 0x26F4, symBinAddr: 0x100006014, symSize: 0xB8 }
  - { offsetInCU: 0x12F2A, offset: 0x12F2A, size: 0x8, addend: 0x0, symName: __ZNSt3__116reverse_iteratorIP5RobotEC1B7v160006ES2_, symObjAddr: 0x2824, symBinAddr: 0x100006144, symSize: 0x34 }
  - { offsetInCU: 0x12F62, offset: 0x12F62, size: 0x8, addend: 0x0, symName: __ZNKSt3__116reverse_iteratorIP5RobotE4baseB7v160006Ev, symObjAddr: 0x2858, symBinAddr: 0x100006178, symSize: 0x18 }
  - { offsetInCU: 0x12F88, offset: 0x12F88, size: 0x8, addend: 0x0, symName: __ZNKSt3__16vectorI5RobotNS_9allocatorIS1_EEE14__annotate_newB7v160006Em, symObjAddr: 0x28AC, symBinAddr: 0x1000061CC, symSize: 0xAC }
  - { offsetInCU: 0x12FBD, offset: 0x12FBD, size: 0x8, addend: 0x0, symName: __ZNKSt3__16vectorI5RobotNS_9allocatorIS1_EEE31__annotate_contiguous_containerB7v160006EPKvS6_S6_S6_, symObjAddr: 0x2968, symBinAddr: 0x100006288, symSize: 0x20 }
  - { offsetInCU: 0x1300F, offset: 0x1300F, size: 0x8, addend: 0x0, symName: __ZNKSt3__16vectorI5RobotNS_9allocatorIS1_EEE4dataB7v160006Ev, symObjAddr: 0x2988, symBinAddr: 0x1000062A8, symSize: 0x28 }
  - { offsetInCU: 0x13059, offset: 0x13059, size: 0x8, addend: 0x0, symName: __ZNKSt3__111__move_loopINS_17_ClassicAlgPolicyEEclB7v160006INS_16reverse_iteratorIP5RobotEES7_S7_EENS_4pairIT_T1_EES9_T0_SA_, symObjAddr: 0x2CA0, symBinAddr: 0x1000065C0, symSize: 0xA8 }
  - { offsetInCU: 0x130C4, offset: 0x130C4, size: 0x8, addend: 0x0, symName: __ZNSt3__18_IterOpsINS_17_ClassicAlgPolicyEE11__iter_moveB7v160006IRNS_16reverse_iteratorIP5RobotEEEENS_9enable_ifIXsr12is_referenceIDTdeclsr3stdE7declvalIRT_EEEEE5valueEDTclsr3stdE4movedeclsr3stdE7declvalISB_EEEEE4typeEOSA_, symObjAddr: 0x2EDC, symBinAddr: 0x1000067FC, symSize: 0x28 }
  - { offsetInCU: 0x130F0, offset: 0x130F0, size: 0x8, addend: 0x0, symName: __ZNKSt3__116reverse_iteratorIP5RobotEdeB7v160006Ev, symObjAddr: 0x2F04, symBinAddr: 0x100006824, symSize: 0x28 }
  - { offsetInCU: 0x13124, offset: 0x13124, size: 0x8, addend: 0x0, symName: __ZNSt3__116reverse_iteratorIP5RobotEppB7v160006Ev, symObjAddr: 0x2F2C, symBinAddr: 0x10000684C, symSize: 0x20 }
  - { offsetInCU: 0x1314A, offset: 0x1314A, size: 0x8, addend: 0x0, symName: __ZNSt3__18_IterOpsINS_17_ClassicAlgPolicyEE25__validate_iter_referenceB7v160006IRNS_16reverse_iteratorIP5RobotEEEEvv, symObjAddr: 0x2F4C, symBinAddr: 0x10000686C, symSize: 0x4 }
  - { offsetInCU: 0x13168, offset: 0x13168, size: 0x8, addend: 0x0, symName: __ZNSt3__118__unwrap_iter_implINS_16reverse_iteratorIP5RobotEELb0EE8__unwrapB7v160006ES4_, symObjAddr: 0x2F50, symBinAddr: 0x100006870, symSize: 0x24 }
  - { offsetInCU: 0x13191, offset: 0x13191, size: 0x8, addend: 0x0, symName: __ZNSt3__14pairINS_16reverse_iteratorIP5RobotEES4_EC1B7v160006IS4_S4_LPv0EEEOT_OT0_, symObjAddr: 0x2F74, symBinAddr: 0x100006894, symSize: 0x3C }
  - { offsetInCU: 0x131EF, offset: 0x131EF, size: 0x8, addend: 0x0, symName: __ZNSt3__14pairINS_16reverse_iteratorIP5RobotEES4_EC2B7v160006IS4_S4_LPv0EEEOT_OT0_, symObjAddr: 0x2FB0, symBinAddr: 0x1000068D0, symSize: 0x34 }
  - { offsetInCU: 0x1324D, offset: 0x1324D, size: 0x8, addend: 0x0, symName: __ZNSt3__118__unwrap_iter_implINS_16reverse_iteratorIP5RobotEELb0EE8__rewrapB7v160006ES4_S4_, symObjAddr: 0x2FE4, symBinAddr: 0x100006904, symSize: 0x2C }
  - { offsetInCU: 0x1327B, offset: 0x1327B, size: 0x8, addend: 0x0, symName: __ZNSt3__116reverse_iteratorIP5RobotEC2B7v160006ES2_, symObjAddr: 0x3010, symBinAddr: 0x100006930, symSize: 0x28 }
  - { offsetInCU: 0x132B3, offset: 0x132B3, size: 0x8, addend: 0x0, symName: __ZNSt3__114__split_bufferI5RobotRNS_9allocatorIS1_EEED2Ev, symObjAddr: 0x3038, symBinAddr: 0x100006958, symSize: 0x8C }
  - { offsetInCU: 0x132DF, offset: 0x132DF, size: 0x8, addend: 0x0, symName: __ZNSt3__114__split_bufferI5RobotRNS_9allocatorIS1_EEE5clearB7v160006Ev, symObjAddr: 0x30C4, symBinAddr: 0x1000069E4, symSize: 0x28 }
  - { offsetInCU: 0x13305, offset: 0x13305, size: 0x8, addend: 0x0, symName: __ZNSt3__116allocator_traitsINS_9allocatorI5RobotEEE10deallocateB7v160006ERS3_PS2_m, symObjAddr: 0x30EC, symBinAddr: 0x100006A0C, symSize: 0x34 }
  - { offsetInCU: 0x13347, offset: 0x13347, size: 0x8, addend: 0x0, symName: __ZNKSt3__114__split_bufferI5RobotRNS_9allocatorIS1_EEE8capacityB7v160006Ev, symObjAddr: 0x3120, symBinAddr: 0x100006A40, symSize: 0x40 }
  - { offsetInCU: 0x1336D, offset: 0x1336D, size: 0x8, addend: 0x0, symName: __ZNSt3__114__split_bufferI5RobotRNS_9allocatorIS1_EEE17__destruct_at_endB7v160006EPS1_, symObjAddr: 0x3160, symBinAddr: 0x100006A80, symSize: 0x2C }
  - { offsetInCU: 0x133A1, offset: 0x133A1, size: 0x8, addend: 0x0, symName: __ZNSt3__114__split_bufferI5RobotRNS_9allocatorIS1_EEE17__destruct_at_endB7v160006EPS1_NS_17integral_constantIbLb0EEE, symObjAddr: 0x318C, symBinAddr: 0x100006AAC, symSize: 0x80 }
  - { offsetInCU: 0x133E2, offset: 0x133E2, size: 0x8, addend: 0x0, symName: __ZNSt3__116allocator_traitsINS_9allocatorI5RobotEEE7destroyB7v160006IS2_vEEvRS3_PT_, symObjAddr: 0x320C, symBinAddr: 0x100006B2C, symSize: 0x2C }
  - { offsetInCU: 0x1341F, offset: 0x1341F, size: 0x8, addend: 0x0, symName: __ZNSt3__19allocatorI5RobotE7destroyB7v160006EPS1_, symObjAddr: 0x3238, symBinAddr: 0x100006B58, symSize: 0x14 }
  - { offsetInCU: 0x13453, offset: 0x13453, size: 0x8, addend: 0x0, symName: __ZNSt3__19allocatorI5RobotE10deallocateB7v160006EPS1_m, symObjAddr: 0x324C, symBinAddr: 0x100006B6C, symSize: 0x40 }
  - { offsetInCU: 0x13495, offset: 0x13495, size: 0x8, addend: 0x0, symName: __ZNKSt3__114__split_bufferI5RobotRNS_9allocatorIS1_EEE9__end_capB7v160006Ev, symObjAddr: 0x328C, symBinAddr: 0x100006BAC, symSize: 0x28 }
  - { offsetInCU: 0x134BB, offset: 0x134BB, size: 0x8, addend: 0x0, symName: __ZNKSt3__117__compressed_pairIP5RobotRNS_9allocatorIS1_EEE5firstB7v160006Ev, symObjAddr: 0x32B4, symBinAddr: 0x100006BD4, symSize: 0x24 }
  - { offsetInCU: 0x134E1, offset: 0x134E1, size: 0x8, addend: 0x0, symName: __ZNSt3__16vectorI5RobotNS_9allocatorIS1_EEED2B7v160006Ev, symObjAddr: 0x32D8, symBinAddr: 0x100006BF8, symSize: 0x44 }
  - { offsetInCU: 0x1350B, offset: 0x1350B, size: 0x8, addend: 0x0, symName: __ZNSt3__16vectorI5RobotNS_9allocatorIS1_EEE16__destroy_vectorC1ERS4_, symObjAddr: 0x331C, symBinAddr: 0x100006C3C, symSize: 0x34 }
  - { offsetInCU: 0x13544, offset: 0x13544, size: 0x8, addend: 0x0, symName: __ZNSt3__16vectorI5RobotNS_9allocatorIS1_EEE16__destroy_vectorclB7v160006Ev, symObjAddr: 0x3350, symBinAddr: 0x100006C70, symSize: 0x9C }
  - { offsetInCU: 0x1356A, offset: 0x1356A, size: 0x8, addend: 0x0, symName: __ZNSt3__16vectorI5RobotNS_9allocatorIS1_EEE16__destroy_vectorC2ERS4_, symObjAddr: 0x33EC, symBinAddr: 0x100006D0C, symSize: 0x20 }
  - { offsetInCU: 0x135A3, offset: 0x135A3, size: 0x8, addend: 0x0, symName: __ZNSt3__16vectorI5RobotNS_9allocatorIS1_EEE7__clearB7v160006Ev, symObjAddr: 0x341C, symBinAddr: 0x100006D3C, symSize: 0x28 }
  - { offsetInCU: 0x135C9, offset: 0x135C9, size: 0x8, addend: 0x0, symName: __ZNSt3__16vectorI5RobotNS_9allocatorIS1_EEE22__base_destruct_at_endB7v160006EPS1_, symObjAddr: 0x3444, symBinAddr: 0x100006D64, symSize: 0x8C }
  - { offsetInCU: 0x1360D, offset: 0x1360D, size: 0x8, addend: 0x0, symName: __ZNSt3__16vectorINS_6threadENS_9allocatorIS1_EEED2B7v160006Ev, symObjAddr: 0x34D0, symBinAddr: 0x100006DF0, symSize: 0x44 }
  - { offsetInCU: 0x13637, offset: 0x13637, size: 0x8, addend: 0x0, symName: __ZNSt3__16vectorINS_6threadENS_9allocatorIS1_EEE16__destroy_vectorC1ERS4_, symObjAddr: 0x3514, symBinAddr: 0x100006E34, symSize: 0x34 }
  - { offsetInCU: 0x13670, offset: 0x13670, size: 0x8, addend: 0x0, symName: __ZNSt3__16vectorINS_6threadENS_9allocatorIS1_EEE16__destroy_vectorclB7v160006Ev, symObjAddr: 0x3548, symBinAddr: 0x100006E68, symSize: 0x9C }
  - { offsetInCU: 0x13696, offset: 0x13696, size: 0x8, addend: 0x0, symName: __ZNSt3__16vectorINS_6threadENS_9allocatorIS1_EEE16__destroy_vectorC2ERS4_, symObjAddr: 0x35E4, symBinAddr: 0x100006F04, symSize: 0x20 }
  - { offsetInCU: 0x136CF, offset: 0x136CF, size: 0x8, addend: 0x0, symName: __ZNKSt3__16vectorINS_6threadENS_9allocatorIS1_EEE17__annotate_deleteB7v160006Ev, symObjAddr: 0x3604, symBinAddr: 0x100006F24, symSize: 0xB8 }
  - { offsetInCU: 0x136F5, offset: 0x136F5, size: 0x8, addend: 0x0, symName: __ZNSt3__16vectorINS_6threadENS_9allocatorIS1_EEE7__clearB7v160006Ev, symObjAddr: 0x36CC, symBinAddr: 0x100006FEC, symSize: 0x28 }
  - { offsetInCU: 0x1371B, offset: 0x1371B, size: 0x8, addend: 0x0, symName: __ZNSt3__116allocator_traitsINS_9allocatorINS_6threadEEEE10deallocateB7v160006ERS3_PS2_m, symObjAddr: 0x36F4, symBinAddr: 0x100007014, symSize: 0x34 }
  - { offsetInCU: 0x1375D, offset: 0x1375D, size: 0x8, addend: 0x0, symName: __ZNSt3__16vectorINS_6threadENS_9allocatorIS1_EEE7__allocB7v160006Ev, symObjAddr: 0x3728, symBinAddr: 0x100007048, symSize: 0x28 }
  - { offsetInCU: 0x13783, offset: 0x13783, size: 0x8, addend: 0x0, symName: __ZNKSt3__16vectorINS_6threadENS_9allocatorIS1_EEE8capacityB7v160006Ev, symObjAddr: 0x3750, symBinAddr: 0x100007070, symSize: 0x40 }
  - { offsetInCU: 0x137A9, offset: 0x137A9, size: 0x8, addend: 0x0, symName: __ZNKSt3__16vectorINS_6threadENS_9allocatorIS1_EEE31__annotate_contiguous_containerB7v160006EPKvS6_S6_S6_, symObjAddr: 0x3790, symBinAddr: 0x1000070B0, symSize: 0x20 }
  - { offsetInCU: 0x137FB, offset: 0x137FB, size: 0x8, addend: 0x0, symName: __ZNKSt3__16vectorINS_6threadENS_9allocatorIS1_EEE4dataB7v160006Ev, symObjAddr: 0x37B0, symBinAddr: 0x1000070D0, symSize: 0x28 }
  - { offsetInCU: 0x13821, offset: 0x13821, size: 0x8, addend: 0x0, symName: __ZNKSt3__16vectorINS_6threadENS_9allocatorIS1_EEE4sizeB7v160006Ev, symObjAddr: 0x37D8, symBinAddr: 0x1000070F8, symSize: 0x28 }
  - { offsetInCU: 0x13847, offset: 0x13847, size: 0x8, addend: 0x0, symName: __ZNSt3__16vectorINS_6threadENS_9allocatorIS1_EEE22__base_destruct_at_endB7v160006EPS1_, symObjAddr: 0x3814, symBinAddr: 0x100007134, symSize: 0x8C }
  - { offsetInCU: 0x1388B, offset: 0x1388B, size: 0x8, addend: 0x0, symName: __ZNSt3__116allocator_traitsINS_9allocatorINS_6threadEEEE7destroyB7v160006IS2_vEEvRS3_PT_, symObjAddr: 0x38A0, symBinAddr: 0x1000071C0, symSize: 0x2C }
  - { offsetInCU: 0x138C8, offset: 0x138C8, size: 0x8, addend: 0x0, symName: __ZNSt3__19allocatorINS_6threadEE7destroyB7v160006EPS1_, symObjAddr: 0x38CC, symBinAddr: 0x1000071EC, symSize: 0x28 }
  - { offsetInCU: 0x138FC, offset: 0x138FC, size: 0x8, addend: 0x0, symName: __ZNSt3__19allocatorINS_6threadEE10deallocateB7v160006EPS1_m, symObjAddr: 0x38F4, symBinAddr: 0x100007214, symSize: 0x40 }
  - { offsetInCU: 0x1393E, offset: 0x1393E, size: 0x8, addend: 0x0, symName: __ZNSt3__117__compressed_pairIPNS_6threadENS_9allocatorIS1_EEE6secondB7v160006Ev, symObjAddr: 0x3934, symBinAddr: 0x100007254, symSize: 0x24 }
  - { offsetInCU: 0x13964, offset: 0x13964, size: 0x8, addend: 0x0, symName: __ZNSt3__122__compressed_pair_elemINS_9allocatorINS_6threadEEELi1ELb1EE5__getB7v160006Ev, symObjAddr: 0x3958, symBinAddr: 0x100007278, symSize: 0x14 }
  - { offsetInCU: 0x1398A, offset: 0x1398A, size: 0x8, addend: 0x0, symName: __ZNKSt3__16vectorINS_6threadENS_9allocatorIS1_EEE9__end_capB7v160006Ev, symObjAddr: 0x396C, symBinAddr: 0x10000728C, symSize: 0x28 }
  - { offsetInCU: 0x139B0, offset: 0x139B0, size: 0x8, addend: 0x0, symName: __ZNKSt3__117__compressed_pairIPNS_6threadENS_9allocatorIS1_EEE5firstB7v160006Ev, symObjAddr: 0x3994, symBinAddr: 0x1000072B4, symSize: 0x24 }
  - { offsetInCU: 0x139D6, offset: 0x139D6, size: 0x8, addend: 0x0, symName: __ZNKSt3__122__compressed_pair_elemIPNS_6threadELi0ELb0EE5__getB7v160006Ev, symObjAddr: 0x39B8, symBinAddr: 0x1000072D8, symSize: 0x14 }
  - { offsetInCU: 0x139FC, offset: 0x139FC, size: 0x8, addend: 0x0, symName: __ZNSt3__16vectorINS_5mutexENS_9allocatorIS1_EEED2B7v160006Ev, symObjAddr: 0x39CC, symBinAddr: 0x1000072EC, symSize: 0x44 }
  - { offsetInCU: 0x13A26, offset: 0x13A26, size: 0x8, addend: 0x0, symName: __ZNSt3__16vectorINS_6threadENS_9allocatorIS1_EEE9push_backB7v160006EOS1_, symObjAddr: 0x3A10, symBinAddr: 0x100007330, symSize: 0x6C }
  - { offsetInCU: 0x13A5D, offset: 0x13A5D, size: 0x8, addend: 0x0, symName: __ZN5Robot11performTaskEv, symObjAddr: 0x3A7C, symBinAddr: 0x10000739C, symSize: 0x2B0 }
  - { offsetInCU: 0x13ADD, offset: 0x13ADD, size: 0x8, addend: 0x0, symName: __ZNSt3__16vectorI5RobotNS_9allocatorIS1_EEEixB7v160006Em, symObjAddr: 0x3D58, symBinAddr: 0x100007678, symSize: 0x24 }
  - { offsetInCU: 0x13B20, offset: 0x13B20, size: 0x8, addend: 0x0, symName: __ZNSt3__16threadC1IM5RobotFvvEJNS_17reference_wrapperIS2_EEEvEEOT_DpOT0_, symObjAddr: 0x3D7C, symBinAddr: 0x10000769C, symSize: 0x3C }
  - { offsetInCU: 0x13B7D, offset: 0x13B7D, size: 0x8, addend: 0x0, symName: __ZNSt3__16vectorINS_6threadENS_9allocatorIS1_EEE5beginB7v160006Ev, symObjAddr: 0x3DB8, symBinAddr: 0x1000076D8, symSize: 0x30 }
  - { offsetInCU: 0x13BA5, offset: 0x13BA5, size: 0x8, addend: 0x0, symName: __ZNSt3__16vectorINS_6threadENS_9allocatorIS1_EEE3endB7v160006Ev, symObjAddr: 0x3DE8, symBinAddr: 0x100007708, symSize: 0x30 }
  - { offsetInCU: 0x13BCD, offset: 0x13BCD, size: 0x8, addend: 0x0, symName: __ZNKSt3__111__wrap_iterIPNS_6threadEEdeB7v160006Ev, symObjAddr: 0x3E4C, symBinAddr: 0x10000776C, symSize: 0x18 }
  - { offsetInCU: 0x13BF3, offset: 0x13BF3, size: 0x8, addend: 0x0, symName: __ZNSt3__111__wrap_iterIPNS_6threadEEppB7v160006Ev, symObjAddr: 0x3E64, symBinAddr: 0x100007784, symSize: 0x20 }
  - { offsetInCU: 0x13C19, offset: 0x13C19, size: 0x8, addend: 0x0, symName: __ZNSt3__16vectorINS_6threadENS_9allocatorIS1_EEE9__end_capB7v160006Ev, symObjAddr: 0x3E84, symBinAddr: 0x1000077A4, symSize: 0x28 }
  - { offsetInCU: 0x13C3F, offset: 0x13C3F, size: 0x8, addend: 0x0, symName: __ZNSt3__16vectorINS_6threadENS_9allocatorIS1_EEE22__construct_one_at_endB7v160006IJS1_EEEvDpOT_, symObjAddr: 0x3EAC, symBinAddr: 0x1000077CC, symSize: 0x90 }
  - { offsetInCU: 0x13C8E, offset: 0x13C8E, size: 0x8, addend: 0x0, symName: __ZNSt3__16vectorINS_6threadENS_9allocatorIS1_EEE21__push_back_slow_pathIS1_EEvOT_, symObjAddr: 0x3F3C, symBinAddr: 0x10000785C, symSize: 0xD8 }
  - { offsetInCU: 0x13CEC, offset: 0x13CEC, size: 0x8, addend: 0x0, symName: __ZNSt3__117__compressed_pairIPNS_6threadENS_9allocatorIS1_EEE5firstB7v160006Ev, symObjAddr: 0x4014, symBinAddr: 0x100007934, symSize: 0x24 }
  - { offsetInCU: 0x13D12, offset: 0x13D12, size: 0x8, addend: 0x0, symName: __ZNSt3__122__compressed_pair_elemIPNS_6threadELi0ELb0EE5__getB7v160006Ev, symObjAddr: 0x4038, symBinAddr: 0x100007958, symSize: 0x14 }
  - { offsetInCU: 0x13D51, offset: 0x13D51, size: 0x8, addend: 0x0, symName: __ZNSt3__16vectorINS_6threadENS_9allocatorIS1_EEE21_ConstructTransactionC1B7v160006ERS4_m, symObjAddr: 0x404C, symBinAddr: 0x10000796C, symSize: 0x3C }
  - { offsetInCU: 0x13D99, offset: 0x13D99, size: 0x8, addend: 0x0, symName: __ZNSt3__116allocator_traitsINS_9allocatorINS_6threadEEEE9constructB7v160006IS2_JS2_EvEEvRS3_PT_DpOT0_, symObjAddr: 0x4088, symBinAddr: 0x1000079A8, symSize: 0x34 }
  - { offsetInCU: 0x13DF0, offset: 0x13DF0, size: 0x8, addend: 0x0, symName: __ZNSt3__16vectorINS_6threadENS_9allocatorIS1_EEE21_ConstructTransactionD1B7v160006Ev, symObjAddr: 0x40BC, symBinAddr: 0x1000079DC, symSize: 0x2C }
  - { offsetInCU: 0x13E1A, offset: 0x13E1A, size: 0x8, addend: 0x0, symName: __ZNSt3__16vectorINS_6threadENS_9allocatorIS1_EEE21_ConstructTransactionC2B7v160006ERS4_m, symObjAddr: 0x40E8, symBinAddr: 0x100007A08, symSize: 0x44 }
  - { offsetInCU: 0x13E62, offset: 0x13E62, size: 0x8, addend: 0x0, symName: __ZNSt3__19allocatorINS_6threadEE9constructB7v160006IS1_JS1_EEEvPT_DpOT0_, symObjAddr: 0x412C, symBinAddr: 0x100007A4C, symSize: 0x30 }
  - { offsetInCU: 0x13EB8, offset: 0x13EB8, size: 0x8, addend: 0x0, symName: __ZNSt3__16threadC1B7v160006EOS0_, symObjAddr: 0x415C, symBinAddr: 0x100007A7C, symSize: 0x34 }
  - { offsetInCU: 0x13EF0, offset: 0x13EF0, size: 0x8, addend: 0x0, symName: __ZNSt3__16threadC2B7v160006EOS0_, symObjAddr: 0x4190, symBinAddr: 0x100007AB0, symSize: 0x2C }
  - { offsetInCU: 0x13F28, offset: 0x13F28, size: 0x8, addend: 0x0, symName: __ZNSt3__16vectorINS_6threadENS_9allocatorIS1_EEE21_ConstructTransactionD2B7v160006Ev, symObjAddr: 0x41BC, symBinAddr: 0x100007ADC, symSize: 0x20 }
  - { offsetInCU: 0x13F52, offset: 0x13F52, size: 0x8, addend: 0x0, symName: __ZNKSt3__16vectorINS_6threadENS_9allocatorIS1_EEE11__recommendB7v160006Em, symObjAddr: 0x41DC, symBinAddr: 0x100007AFC, symSize: 0xB4 }
  - { offsetInCU: 0x13FA7, offset: 0x13FA7, size: 0x8, addend: 0x0, symName: __ZNSt3__114__split_bufferINS_6threadERNS_9allocatorIS1_EEEC1EmmS4_, symObjAddr: 0x4290, symBinAddr: 0x100007BB0, symSize: 0x44 }
  - { offsetInCU: 0x13FFD, offset: 0x13FFD, size: 0x8, addend: 0x0, symName: __ZNSt3__114__split_bufferINS_6threadERNS_9allocatorIS1_EEED1Ev, symObjAddr: 0x43EC, symBinAddr: 0x100007D0C, symSize: 0x2C }
  - { offsetInCU: 0x14029, offset: 0x14029, size: 0x8, addend: 0x0, symName: __ZNKSt3__16vectorINS_6threadENS_9allocatorIS1_EEE8max_sizeEv, symObjAddr: 0x4418, symBinAddr: 0x100007D38, symSize: 0x60 }
  - { offsetInCU: 0x14051, offset: 0x14051, size: 0x8, addend: 0x0, symName: __ZNKSt3__16vectorINS_6threadENS_9allocatorIS1_EEE20__throw_length_errorB7v160006Ev, symObjAddr: 0x4478, symBinAddr: 0x100007D98, symSize: 0x1C }
  - { offsetInCU: 0x14081, offset: 0x14081, size: 0x8, addend: 0x0, symName: __ZNSt3__116allocator_traitsINS_9allocatorINS_6threadEEEE8max_sizeB7v160006IS3_vEEmRKS3_, symObjAddr: 0x4494, symBinAddr: 0x100007DB4, symSize: 0x24 }
  - { offsetInCU: 0x140AF, offset: 0x140AF, size: 0x8, addend: 0x0, symName: __ZNKSt3__16vectorINS_6threadENS_9allocatorIS1_EEE7__allocB7v160006Ev, symObjAddr: 0x44B8, symBinAddr: 0x100007DD8, symSize: 0x28 }
  - { offsetInCU: 0x140D5, offset: 0x140D5, size: 0x8, addend: 0x0, symName: __ZNKSt3__19allocatorINS_6threadEE8max_sizeB7v160006Ev, symObjAddr: 0x44E0, symBinAddr: 0x100007E00, symSize: 0x14 }
  - { offsetInCU: 0x140FB, offset: 0x140FB, size: 0x8, addend: 0x0, symName: __ZNKSt3__117__compressed_pairIPNS_6threadENS_9allocatorIS1_EEE6secondB7v160006Ev, symObjAddr: 0x44F4, symBinAddr: 0x100007E14, symSize: 0x24 }
  - { offsetInCU: 0x14121, offset: 0x14121, size: 0x8, addend: 0x0, symName: __ZNKSt3__122__compressed_pair_elemINS_9allocatorINS_6threadEEELi1ELb1EE5__getB7v160006Ev, symObjAddr: 0x4518, symBinAddr: 0x100007E38, symSize: 0x14 }
  - { offsetInCU: 0x14147, offset: 0x14147, size: 0x8, addend: 0x0, symName: __ZNSt3__114__split_bufferINS_6threadERNS_9allocatorIS1_EEEC2EmmS4_, symObjAddr: 0x452C, symBinAddr: 0x100007E4C, symSize: 0xD4 }
  - { offsetInCU: 0x141BA, offset: 0x141BA, size: 0x8, addend: 0x0, symName: __ZNSt3__117__compressed_pairIPNS_6threadERNS_9allocatorIS1_EEEC1B7v160006IDnS5_EEOT_OT0_, symObjAddr: 0x4600, symBinAddr: 0x100007F20, symSize: 0x3C }
  - { offsetInCU: 0x14212, offset: 0x14212, size: 0x8, addend: 0x0, symName: __ZNSt3__114__split_bufferINS_6threadERNS_9allocatorIS1_EEE7__allocB7v160006Ev, symObjAddr: 0x467C, symBinAddr: 0x100007F9C, symSize: 0x28 }
  - { offsetInCU: 0x14238, offset: 0x14238, size: 0x8, addend: 0x0, symName: __ZNSt3__114__split_bufferINS_6threadERNS_9allocatorIS1_EEE9__end_capB7v160006Ev, symObjAddr: 0x46A4, symBinAddr: 0x100007FC4, symSize: 0x28 }
  - { offsetInCU: 0x1425E, offset: 0x1425E, size: 0x8, addend: 0x0, symName: __ZNSt3__117__compressed_pairIPNS_6threadERNS_9allocatorIS1_EEEC2B7v160006IDnS5_EEOT_OT0_, symObjAddr: 0x46CC, symBinAddr: 0x100007FEC, symSize: 0x48 }
  - { offsetInCU: 0x142B6, offset: 0x142B6, size: 0x8, addend: 0x0, symName: __ZNSt3__122__compressed_pair_elemIRNS_9allocatorINS_6threadEEELi1ELb0EEC2B7v160006IS4_vEEOT_, symObjAddr: 0x4714, symBinAddr: 0x100008034, symSize: 0x20 }
  - { offsetInCU: 0x142F8, offset: 0x142F8, size: 0x8, addend: 0x0, symName: __ZNSt3__19allocatorINS_6threadEE8allocateB7v160006Em, symObjAddr: 0x4734, symBinAddr: 0x100008054, symSize: 0x58 }
  - { offsetInCU: 0x1432C, offset: 0x1432C, size: 0x8, addend: 0x0, symName: __ZNSt3__117__compressed_pairIPNS_6threadERNS_9allocatorIS1_EEE6secondB7v160006Ev, symObjAddr: 0x478C, symBinAddr: 0x1000080AC, symSize: 0x28 }
  - { offsetInCU: 0x14352, offset: 0x14352, size: 0x8, addend: 0x0, symName: __ZNSt3__122__compressed_pair_elemIRNS_9allocatorINS_6threadEEELi1ELb0EE5__getB7v160006Ev, symObjAddr: 0x47B4, symBinAddr: 0x1000080D4, symSize: 0x18 }
  - { offsetInCU: 0x14378, offset: 0x14378, size: 0x8, addend: 0x0, symName: __ZNSt3__117__compressed_pairIPNS_6threadERNS_9allocatorIS1_EEE5firstB7v160006Ev, symObjAddr: 0x47CC, symBinAddr: 0x1000080EC, symSize: 0x24 }
  - { offsetInCU: 0x1439E, offset: 0x1439E, size: 0x8, addend: 0x0, symName: __ZNSt3__116reverse_iteratorIPNS_6threadEEC1B7v160006ES2_, symObjAddr: 0x491C, symBinAddr: 0x10000823C, symSize: 0x34 }
  - { offsetInCU: 0x143D6, offset: 0x143D6, size: 0x8, addend: 0x0, symName: __ZNKSt3__116reverse_iteratorIPNS_6threadEE4baseB7v160006Ev, symObjAddr: 0x4950, symBinAddr: 0x100008270, symSize: 0x18 }
  - { offsetInCU: 0x143FC, offset: 0x143FC, size: 0x8, addend: 0x0, symName: __ZNKSt3__16vectorINS_6threadENS_9allocatorIS1_EEE14__annotate_newB7v160006Em, symObjAddr: 0x49A4, symBinAddr: 0x1000082C4, symSize: 0xAC }
  - { offsetInCU: 0x14431, offset: 0x14431, size: 0x8, addend: 0x0, symName: __ZNSt3__129_AllocatorDestroyRangeReverseINS_9allocatorINS_6threadEEENS_16reverse_iteratorIPS2_EEEC1B7v160006ERS3_RS6_S9_, symObjAddr: 0x4AAC, symBinAddr: 0x1000083CC, symSize: 0x44 }
  - { offsetInCU: 0x14488, offset: 0x14488, size: 0x8, addend: 0x0, symName: __ZNKSt3__116reverse_iteratorIPNS_6threadEEdeB7v160006Ev, symObjAddr: 0x4B5C, symBinAddr: 0x10000847C, symSize: 0x28 }
  - { offsetInCU: 0x144BC, offset: 0x144BC, size: 0x8, addend: 0x0, symName: __ZNSt3__116reverse_iteratorIPNS_6threadEEppB7v160006Ev, symObjAddr: 0x4B84, symBinAddr: 0x1000084A4, symSize: 0x20 }
  - { offsetInCU: 0x144E2, offset: 0x144E2, size: 0x8, addend: 0x0, symName: __ZNSt3__128__exception_guard_exceptionsINS_29_AllocatorDestroyRangeReverseINS_9allocatorINS_6threadEEENS_16reverse_iteratorIPS3_EEEEE10__completeB7v160006Ev, symObjAddr: 0x4BA4, symBinAddr: 0x1000084C4, symSize: 0x1C }
  - { offsetInCU: 0x14508, offset: 0x14508, size: 0x8, addend: 0x0, symName: __ZNSt3__128__exception_guard_exceptionsINS_29_AllocatorDestroyRangeReverseINS_9allocatorINS_6threadEEENS_16reverse_iteratorIPS3_EEEEED1B7v160006Ev, symObjAddr: 0x4BC0, symBinAddr: 0x1000084E0, symSize: 0x2C }
  - { offsetInCU: 0x14532, offset: 0x14532, size: 0x8, addend: 0x0, symName: __ZNSt3__128__exception_guard_exceptionsINS_29_AllocatorDestroyRangeReverseINS_9allocatorINS_6threadEEENS_16reverse_iteratorIPS3_EEEEEC1B7v160006ES8_, symObjAddr: 0x4BEC, symBinAddr: 0x10000850C, symSize: 0x34 }
  - { offsetInCU: 0x1456B, offset: 0x1456B, size: 0x8, addend: 0x0, symName: __ZNSt3__128__exception_guard_exceptionsINS_29_AllocatorDestroyRangeReverseINS_9allocatorINS_6threadEEENS_16reverse_iteratorIPS3_EEEEEC2B7v160006ES8_, symObjAddr: 0x4C20, symBinAddr: 0x100008540, symSize: 0x30 }
  - { offsetInCU: 0x145A4, offset: 0x145A4, size: 0x8, addend: 0x0, symName: __ZNSt3__129_AllocatorDestroyRangeReverseINS_9allocatorINS_6threadEEENS_16reverse_iteratorIPS2_EEEC2B7v160006ERS3_RS6_S9_, symObjAddr: 0x4C50, symBinAddr: 0x100008570, symSize: 0x38 }
  - { offsetInCU: 0x14600, offset: 0x14600, size: 0x8, addend: 0x0, symName: __ZNSt3__119__to_address_helperINS_16reverse_iteratorIPNS_6threadEEEvE6__callB7v160006ERKS4_, symObjAddr: 0x4C88, symBinAddr: 0x1000085A8, symSize: 0x38 }
  - { offsetInCU: 0x14623, offset: 0x14623, size: 0x8, addend: 0x0, symName: __ZNKSt3__116reverse_iteratorIPNS_6threadEEptB7v160006Ev, symObjAddr: 0x4CC0, symBinAddr: 0x1000085E0, symSize: 0x24 }
  - { offsetInCU: 0x14649, offset: 0x14649, size: 0x8, addend: 0x0, symName: __ZNSt3__128__exception_guard_exceptionsINS_29_AllocatorDestroyRangeReverseINS_9allocatorINS_6threadEEENS_16reverse_iteratorIPS3_EEEEED2B7v160006Ev, symObjAddr: 0x4CE4, symBinAddr: 0x100008604, symSize: 0x50 }
  - { offsetInCU: 0x14673, offset: 0x14673, size: 0x8, addend: 0x0, symName: __ZNKSt3__129_AllocatorDestroyRangeReverseINS_9allocatorINS_6threadEEENS_16reverse_iteratorIPS2_EEEclB7v160006Ev, symObjAddr: 0x4D34, symBinAddr: 0x100008654, symSize: 0xB4 }
  - { offsetInCU: 0x1469A, offset: 0x1469A, size: 0x8, addend: 0x0, symName: __ZNSt3__116reverse_iteratorINS0_IPNS_6threadEEEEC1B7v160006ES3_, symObjAddr: 0x4E58, symBinAddr: 0x100008778, symSize: 0x3C }
  - { offsetInCU: 0x146D2, offset: 0x146D2, size: 0x8, addend: 0x0, symName: __ZNSt3__116reverse_iteratorINS0_IPNS_6threadEEEEppB7v160006Ev, symObjAddr: 0x4F18, symBinAddr: 0x100008838, symSize: 0x30 }
  - { offsetInCU: 0x146F8, offset: 0x146F8, size: 0x8, addend: 0x0, symName: __ZNKSt3__116reverse_iteratorINS0_IPNS_6threadEEEE4baseB7v160006Ev, symObjAddr: 0x4F48, symBinAddr: 0x100008868, symSize: 0x24 }
  - { offsetInCU: 0x14723, offset: 0x14723, size: 0x8, addend: 0x0, symName: __ZNSt3__119__to_address_helperINS_16reverse_iteratorINS1_IPNS_6threadEEEEEvE6__callB7v160006ERKS5_, symObjAddr: 0x4F6C, symBinAddr: 0x10000888C, symSize: 0x38 }
  - { offsetInCU: 0x14746, offset: 0x14746, size: 0x8, addend: 0x0, symName: __ZNKSt3__116reverse_iteratorINS0_IPNS_6threadEEEEptB7v160006Ev, symObjAddr: 0x4FA4, symBinAddr: 0x1000088C4, symSize: 0x24 }
  - { offsetInCU: 0x1476C, offset: 0x1476C, size: 0x8, addend: 0x0, symName: __ZNKSt3__116reverse_iteratorINS0_IPNS_6threadEEEEdeB7v160006Ev, symObjAddr: 0x4FC8, symBinAddr: 0x1000088E8, symSize: 0x34 }
  - { offsetInCU: 0x147A0, offset: 0x147A0, size: 0x8, addend: 0x0, symName: __ZNSt3__116reverse_iteratorIPNS_6threadEEmmB7v160006Ev, symObjAddr: 0x4FFC, symBinAddr: 0x10000891C, symSize: 0x20 }
  - { offsetInCU: 0x147C6, offset: 0x147C6, size: 0x8, addend: 0x0, symName: __ZNSt3__116reverse_iteratorINS0_IPNS_6threadEEEEC2B7v160006ES3_, symObjAddr: 0x501C, symBinAddr: 0x10000893C, symSize: 0x2C }
  - { offsetInCU: 0x147FE, offset: 0x147FE, size: 0x8, addend: 0x0, symName: __ZNSt3__116reverse_iteratorIPNS_6threadEEC2B7v160006ES2_, symObjAddr: 0x5048, symBinAddr: 0x100008968, symSize: 0x28 }
  - { offsetInCU: 0x14836, offset: 0x14836, size: 0x8, addend: 0x0, symName: __ZNSt3__114__split_bufferINS_6threadERNS_9allocatorIS1_EEED2Ev, symObjAddr: 0x5070, symBinAddr: 0x100008990, symSize: 0x8C }
  - { offsetInCU: 0x14862, offset: 0x14862, size: 0x8, addend: 0x0, symName: __ZNSt3__114__split_bufferINS_6threadERNS_9allocatorIS1_EEE5clearB7v160006Ev, symObjAddr: 0x50FC, symBinAddr: 0x100008A1C, symSize: 0x28 }
  - { offsetInCU: 0x14888, offset: 0x14888, size: 0x8, addend: 0x0, symName: __ZNKSt3__114__split_bufferINS_6threadERNS_9allocatorIS1_EEE8capacityB7v160006Ev, symObjAddr: 0x5124, symBinAddr: 0x100008A44, symSize: 0x40 }
  - { offsetInCU: 0x148AE, offset: 0x148AE, size: 0x8, addend: 0x0, symName: __ZNSt3__114__split_bufferINS_6threadERNS_9allocatorIS1_EEE17__destruct_at_endB7v160006EPS1_, symObjAddr: 0x5164, symBinAddr: 0x100008A84, symSize: 0x2C }
  - { offsetInCU: 0x148E2, offset: 0x148E2, size: 0x8, addend: 0x0, symName: __ZNSt3__114__split_bufferINS_6threadERNS_9allocatorIS1_EEE17__destruct_at_endB7v160006EPS1_NS_17integral_constantIbLb0EEE, symObjAddr: 0x5190, symBinAddr: 0x100008AB0, symSize: 0x80 }
  - { offsetInCU: 0x14923, offset: 0x14923, size: 0x8, addend: 0x0, symName: __ZNKSt3__114__split_bufferINS_6threadERNS_9allocatorIS1_EEE9__end_capB7v160006Ev, symObjAddr: 0x5210, symBinAddr: 0x100008B30, symSize: 0x28 }
  - { offsetInCU: 0x14949, offset: 0x14949, size: 0x8, addend: 0x0, symName: __ZNKSt3__117__compressed_pairIPNS_6threadERNS_9allocatorIS1_EEE5firstB7v160006Ev, symObjAddr: 0x5238, symBinAddr: 0x100008B58, symSize: 0x24 }
  - { offsetInCU: 0x14988, offset: 0x14988, size: 0x8, addend: 0x0, symName: __ZNSt3__110lock_guardINS_5mutexEEC1B7v160006ERS1_, symObjAddr: 0x525C, symBinAddr: 0x100008B7C, symSize: 0x34 }
  - { offsetInCU: 0x149C0, offset: 0x149C0, size: 0x8, addend: 0x0, symName: __ZNSt3__110lock_guardINS_5mutexEED1B7v160006Ev, symObjAddr: 0x5290, symBinAddr: 0x100008BB0, symSize: 0x2C }
  - { offsetInCU: 0x149EA, offset: 0x149EA, size: 0x8, addend: 0x0, symName: __ZNSt3__110lock_guardINS_5mutexEEC1B7v160006ERS1_NS_12adopt_lock_tE, symObjAddr: 0x539C, symBinAddr: 0x100008CBC, symSize: 0x34 }
  - { offsetInCU: 0x14A32, offset: 0x14A32, size: 0x8, addend: 0x0, symName: __ZNSt3__16chrono8durationIxNS_5ratioILl1ELl1EEEEC1B7v160006IiEERKT_PNS_9enable_ifIXaasr14is_convertibleIS8_xEE5valueooL_ZNS_17integral_constantIbLb0EE5valueEEntsr23treat_as_floating_pointIS6_EE5valueEvE4typeE, symObjAddr: 0x548C, symBinAddr: 0x100008DAC, symSize: 0x3C }
  - { offsetInCU: 0x14A7E, offset: 0x14A7E, size: 0x8, addend: 0x0, symName: __ZNSt3__110lock_guardINS_5mutexEEC2B7v160006ERS1_, symObjAddr: 0x54C8, symBinAddr: 0x100008DE8, symSize: 0x3C }
  - { offsetInCU: 0x14AB6, offset: 0x14AB6, size: 0x8, addend: 0x0, symName: __ZNSt3__110lock_guardINS_5mutexEED2B7v160006Ev, symObjAddr: 0x5504, symBinAddr: 0x100008E24, symSize: 0x30 }
  - { offsetInCU: 0x14AE0, offset: 0x14AE0, size: 0x8, addend: 0x0, symName: __ZNSt3__111unique_lockINS_5mutexEEC1B7v160006ERS1_, symObjAddr: 0x5534, symBinAddr: 0x100008E54, symSize: 0x34 }
  - { offsetInCU: 0x14B18, offset: 0x14B18, size: 0x8, addend: 0x0, symName: __ZNSt3__111unique_lockINS_5mutexEE7releaseB7v160006Ev, symObjAddr: 0x5568, symBinAddr: 0x100008E88, symSize: 0x28 }
  - { offsetInCU: 0x14B4C, offset: 0x14B4C, size: 0x8, addend: 0x0, symName: __ZNSt3__111unique_lockINS_5mutexEED1B7v160006Ev, symObjAddr: 0x5590, symBinAddr: 0x100008EB0, symSize: 0x2C }
  - { offsetInCU: 0x14B76, offset: 0x14B76, size: 0x8, addend: 0x0, symName: __ZNSt3__111unique_lockINS_5mutexEEC2B7v160006ERS1_, symObjAddr: 0x55D0, symBinAddr: 0x100008EF0, symSize: 0x44 }
  - { offsetInCU: 0x14BAE, offset: 0x14BAE, size: 0x8, addend: 0x0, symName: __ZNSt3__111unique_lockINS_5mutexEED2B7v160006Ev, symObjAddr: 0x5614, symBinAddr: 0x100008F34, symSize: 0x4C }
  - { offsetInCU: 0x14BD8, offset: 0x14BD8, size: 0x8, addend: 0x0, symName: __ZNSt3__110lock_guardINS_5mutexEEC2B7v160006ERS1_NS_12adopt_lock_tE, symObjAddr: 0x5660, symBinAddr: 0x100008F80, symSize: 0x20 }
  - { offsetInCU: 0x14C1B, offset: 0x14C1B, size: 0x8, addend: 0x0, symName: __ZNSt3__16chrono8durationIxNS_5ratioILl1ELl1EEEE4zeroB7v160006Ev, symObjAddr: 0x56B0, symBinAddr: 0x100008FD0, symSize: 0x3C }
  - { offsetInCU: 0x14C2F, offset: 0x14C2F, size: 0x8, addend: 0x0, symName: __ZNSt3__16chrono8durationIxNS_5ratioILl1ELl1000000000EEEEppB7v160006Ev, symObjAddr: 0x5784, symBinAddr: 0x1000090A4, symSize: 0x20 }
  - { offsetInCU: 0x14C55, offset: 0x14C55, size: 0x8, addend: 0x0, symName: __ZNSt3__16chrono8durationIxNS_5ratioILl1ELl1000000000EEEE3maxB7v160006Ev, symObjAddr: 0x57A4, symBinAddr: 0x1000090C4, symSize: 0x3C }
  - { offsetInCU: 0x14C73, offset: 0x14C73, size: 0x8, addend: 0x0, symName: __ZNKSt3__16chrono13__duration_ltINS0_8durationIxNS_5ratioILl1ELl1EEEEES5_EclB7v160006ERKS5_S8_, symObjAddr: 0x5814, symBinAddr: 0x100009134, symSize: 0x4C }
  - { offsetInCU: 0x14CB7, offset: 0x14CB7, size: 0x8, addend: 0x0, symName: __ZNKSt3__16chrono8durationIxNS_5ratioILl1ELl1EEEE5countB7v160006Ev, symObjAddr: 0x5860, symBinAddr: 0x100009180, symSize: 0x18 }
  - { offsetInCU: 0x14CDD, offset: 0x14CDD, size: 0x8, addend: 0x0, symName: __ZNSt3__16chrono8durationIxNS_5ratioILl1ELl1EEEEC1B7v160006IxEERKT_PNS_9enable_ifIXaasr14is_convertibleIS8_xEE5valueooL_ZNS_17integral_constantIbLb0EE5valueEEntsr23treat_as_floating_pointIS6_EE5valueEvE4typeE, symObjAddr: 0x5878, symBinAddr: 0x100009198, symSize: 0x3C }
  - { offsetInCU: 0x14D29, offset: 0x14D29, size: 0x8, addend: 0x0, symName: __ZNSt3__16chrono8durationIxNS_5ratioILl1ELl1EEEEC2B7v160006IxEERKT_PNS_9enable_ifIXaasr14is_convertibleIS8_xEE5valueooL_ZNS_17integral_constantIbLb0EE5valueEEntsr23treat_as_floating_pointIS6_EE5valueEvE4typeE, symObjAddr: 0x58B4, symBinAddr: 0x1000091D4, symSize: 0x28 }
  - { offsetInCU: 0x14D75, offset: 0x14D75, size: 0x8, addend: 0x0, symName: __ZNSt3__16chrono8durationIeNS_5ratioILl1ELl1EEEEC1B7v160006IxS3_EERKNS1_IT_T0_EEPNS_9enable_ifIXaasr13__no_overflowIS7_S3_EE5valueooL_ZNS_17integral_constantIbLb1EE5valueEEaaeqsr13__no_overflowIS7_S3_E4typeE3denLi1Entsr23treat_as_floating_pointIS6_EE5valueEvE4typeE, symObjAddr: 0x5948, symBinAddr: 0x100009268, symSize: 0x3C }
  - { offsetInCU: 0x14DCB, offset: 0x14DCB, size: 0x8, addend: 0x0, symName: __ZNKSt3__16chrono8durationIeNS_5ratioILl1ELl1EEEE5countB7v160006Ev, symObjAddr: 0x5984, symBinAddr: 0x1000092A4, symSize: 0x18 }
  - { offsetInCU: 0x14DF1, offset: 0x14DF1, size: 0x8, addend: 0x0, symName: __ZNSt3__16chrono8durationIeNS_5ratioILl1ELl1EEEEC2B7v160006IxS3_EERKNS1_IT_T0_EEPNS_9enable_ifIXaasr13__no_overflowIS7_S3_EE5valueooL_ZNS_17integral_constantIbLb1EE5valueEEaaeqsr13__no_overflowIS7_S3_E4typeE3denLi1Entsr23treat_as_floating_pointIS6_EE5valueEvE4typeE, symObjAddr: 0x599C, symBinAddr: 0x1000092BC, symSize: 0x48 }
  - { offsetInCU: 0x14E51, offset: 0x14E51, size: 0x8, addend: 0x0, symName: __ZNKSt3__16chrono15__duration_castINS0_8durationIxNS_5ratioILl1ELl1EEEEENS2_IeS4_EES4_Lb1ELb1EEclB7v160006ERKS5_, symObjAddr: 0x5A14, symBinAddr: 0x100009334, symSize: 0x44 }
  - { offsetInCU: 0x14E8F, offset: 0x14E8F, size: 0x8, addend: 0x0, symName: __ZNSt3__16chrono8durationIeNS_5ratioILl1ELl1EEEEC1B7v160006IeEERKT_PNS_9enable_ifIXaasr14is_convertibleIS8_eEE5valueooL_ZNS_17integral_constantIbLb1EE5valueEEntsr23treat_as_floating_pointIS6_EE5valueEvE4typeE, symObjAddr: 0x5A58, symBinAddr: 0x100009378, symSize: 0x3C }
  - { offsetInCU: 0x14EDB, offset: 0x14EDB, size: 0x8, addend: 0x0, symName: __ZNSt3__16chrono8durationIeNS_5ratioILl1ELl1EEEEC2B7v160006IeEERKT_PNS_9enable_ifIXaasr14is_convertibleIS8_eEE5valueooL_ZNS_17integral_constantIbLb1EE5valueEEntsr23treat_as_floating_pointIS6_EE5valueEvE4typeE, symObjAddr: 0x5A94, symBinAddr: 0x1000093B4, symSize: 0x28 }
  - { offsetInCU: 0x14F27, offset: 0x14F27, size: 0x8, addend: 0x0, symName: __ZNKSt3__16chrono8durationIxNS_5ratioILl1ELl1000000000EEEE5countB7v160006Ev, symObjAddr: 0x5B74, symBinAddr: 0x100009494, symSize: 0x18 }
  - { offsetInCU: 0x14F4D, offset: 0x14F4D, size: 0x8, addend: 0x0, symName: __ZNSt3__16chrono8durationIxNS_5ratioILl1ELl1000000000EEEEC1B7v160006IxNS2_ILl1ELl1EEEEERKNS1_IT_T0_EEPNS_9enable_ifIXaasr13__no_overflowIS8_S3_EE5valueooL_ZNS_17integral_constantIbLb0EE5valueEEaaeqsr13__no_overflowIS8_S3_E4typeE3denLi1Entsr23treat_as_floating_pointIS7_EE5valueEvE4typeE, symObjAddr: 0x5B8C, symBinAddr: 0x1000094AC, symSize: 0x3C }
  - { offsetInCU: 0x14FA3, offset: 0x14FA3, size: 0x8, addend: 0x0, symName: __ZNSt3__16chrono8durationIxNS_5ratioILl1ELl1000000000EEEEC2B7v160006IxNS2_ILl1ELl1EEEEERKNS1_IT_T0_EEPNS_9enable_ifIXaasr13__no_overflowIS8_S3_EE5valueooL_ZNS_17integral_constantIbLb0EE5valueEEaaeqsr13__no_overflowIS8_S3_E4typeE3denLi1Entsr23treat_as_floating_pointIS7_EE5valueEvE4typeE, symObjAddr: 0x5BC8, symBinAddr: 0x1000094E8, symSize: 0x50 }
  - { offsetInCU: 0x14FF9, offset: 0x14FF9, size: 0x8, addend: 0x0, symName: __ZNSt3__16chrono15duration_valuesIxE3maxB7v160006Ev, symObjAddr: 0x5C18, symBinAddr: 0x100009538, symSize: 0x14 }
  - { offsetInCU: 0x1500D, offset: 0x1500D, size: 0x8, addend: 0x0, symName: __ZNSt3__114numeric_limitsIxE3maxB7v160006Ev, symObjAddr: 0x5C2C, symBinAddr: 0x10000954C, symSize: 0x14 }
  - { offsetInCU: 0x15021, offset: 0x15021, size: 0x8, addend: 0x0, symName: __ZNSt3__123__libcpp_numeric_limitsIxLb1EE3maxB7v160006Ev, symObjAddr: 0x5C40, symBinAddr: 0x100009560, symSize: 0x8 }
  - { offsetInCU: 0x15035, offset: 0x15035, size: 0x8, addend: 0x0, symName: __ZNSt3__16chrono8durationIxNS_5ratioILl1ELl1EEEEC2B7v160006IiEERKT_PNS_9enable_ifIXaasr14is_convertibleIS8_xEE5valueooL_ZNS_17integral_constantIbLb0EE5valueEEntsr23treat_as_floating_pointIS6_EE5valueEvE4typeE, symObjAddr: 0x5C48, symBinAddr: 0x100009568, symSize: 0x28 }
  - { offsetInCU: 0x15086, offset: 0x15086, size: 0x8, addend: 0x0, symName: __ZNSt3__117reference_wrapperI5RobotEC1B7v160006IRS1_vEEOT_, symObjAddr: 0x5C70, symBinAddr: 0x100009590, symSize: 0x34 }
  - { offsetInCU: 0x150C8, offset: 0x150C8, size: 0x8, addend: 0x0, symName: __ZNSt3__117reference_wrapperI5RobotEC2B7v160006IRS1_vEEOT_, symObjAddr: 0x5CA4, symBinAddr: 0x1000095C4, symSize: 0x28 }
  - { offsetInCU: 0x15126, offset: 0x15126, size: 0x8, addend: 0x0, symName: __ZNSt3__16threadC2IM5RobotFvvEJNS_17reference_wrapperIS2_EEEvEEOT_DpOT0_, symObjAddr: 0x5CCC, symBinAddr: 0x1000095EC, symSize: 0x150 }
  - { offsetInCU: 0x151B6, offset: 0x151B6, size: 0x8, addend: 0x0, symName: __ZNSt3__110unique_ptrINS_15__thread_structENS_14default_deleteIS1_EEEC1B7v160006ILb1EvEEPS1_, symObjAddr: 0x5E1C, symBinAddr: 0x10000973C, symSize: 0x34 }
  - { offsetInCU: 0x151F9, offset: 0x151F9, size: 0x8, addend: 0x0, symName: __ZNSt3__15tupleIJNS_10unique_ptrINS_15__thread_structENS_14default_deleteIS2_EEEEM5RobotFvvENS_17reference_wrapperIS6_EEEEC1B7v160006IJS5_S8_SA_ELi0EEEDpOT_, symObjAddr: 0x5E50, symBinAddr: 0x100009770, symSize: 0x44 }
  - { offsetInCU: 0x152FD, offset: 0x152FD, size: 0x8, addend: 0x0, symName: __ZNSt3__110unique_ptrINS_5tupleIJNS0_INS_15__thread_structENS_14default_deleteIS2_EEEEM5RobotFvvENS_17reference_wrapperIS6_EEEEENS3_ISB_EEEC1B7v160006ILb1EvEEPSB_, symObjAddr: 0x5E94, symBinAddr: 0x1000097B4, symSize: 0x34 }
  - { offsetInCU: 0x15340, offset: 0x15340, size: 0x8, addend: 0x0, symName: __ZNKSt3__110unique_ptrINS_5tupleIJNS0_INS_15__thread_structENS_14default_deleteIS2_EEEEM5RobotFvvENS_17reference_wrapperIS6_EEEEENS3_ISB_EEE3getB7v160006Ev, symObjAddr: 0x5F90, symBinAddr: 0x1000098B0, symSize: 0x28 }
  - { offsetInCU: 0x15366, offset: 0x15366, size: 0x8, addend: 0x0, symName: __ZNSt3__110unique_ptrINS_5tupleIJNS0_INS_15__thread_structENS_14default_deleteIS2_EEEEM5RobotFvvENS_17reference_wrapperIS6_EEEEENS3_ISB_EEE7releaseB7v160006Ev, symObjAddr: 0x5FB8, symBinAddr: 0x1000098D8, symSize: 0x44 }
  - { offsetInCU: 0x1539B, offset: 0x1539B, size: 0x8, addend: 0x0, symName: __ZNSt3__110unique_ptrINS_5tupleIJNS0_INS_15__thread_structENS_14default_deleteIS2_EEEEM5RobotFvvENS_17reference_wrapperIS6_EEEEENS3_ISB_EEED1B7v160006Ev, symObjAddr: 0x5FFC, symBinAddr: 0x10000991C, symSize: 0x2C }
  - { offsetInCU: 0x153C5, offset: 0x153C5, size: 0x8, addend: 0x0, symName: __ZNSt3__110unique_ptrINS_15__thread_structENS_14default_deleteIS1_EEED1B7v160006Ev, symObjAddr: 0x6028, symBinAddr: 0x100009948, symSize: 0x2C }
  - { offsetInCU: 0x153EF, offset: 0x153EF, size: 0x8, addend: 0x0, symName: __ZNSt3__110unique_ptrINS_15__thread_structENS_14default_deleteIS1_EEEC2B7v160006ILb1EvEEPS1_, symObjAddr: 0x6054, symBinAddr: 0x100009974, symSize: 0x44 }
  - { offsetInCU: 0x15438, offset: 0x15438, size: 0x8, addend: 0x0, symName: __ZNSt3__117__compressed_pairIPNS_15__thread_structENS_14default_deleteIS1_EEEC1B7v160006IRS2_NS_16__value_init_tagEEEOT_OT0_, symObjAddr: 0x6098, symBinAddr: 0x1000099B8, symSize: 0x3C }
  - { offsetInCU: 0x15490, offset: 0x15490, size: 0x8, addend: 0x0, symName: __ZNSt3__117__compressed_pairIPNS_15__thread_structENS_14default_deleteIS1_EEEC2B7v160006IRS2_NS_16__value_init_tagEEEOT_OT0_, symObjAddr: 0x60D4, symBinAddr: 0x1000099F4, symSize: 0x40 }
  - { offsetInCU: 0x154E8, offset: 0x154E8, size: 0x8, addend: 0x0, symName: __ZNSt3__122__compressed_pair_elemIPNS_15__thread_structELi0ELb0EEC2B7v160006IRS2_vEEOT_, symObjAddr: 0x6114, symBinAddr: 0x100009A34, symSize: 0x24 }
  - { offsetInCU: 0x1552A, offset: 0x1552A, size: 0x8, addend: 0x0, symName: __ZNSt3__122__compressed_pair_elemINS_14default_deleteINS_15__thread_structEEELi1ELb1EEC2B7v160006ENS_16__value_init_tagE, symObjAddr: 0x6138, symBinAddr: 0x100009A58, symSize: 0x14 }
  - { offsetInCU: 0x1555F, offset: 0x1555F, size: 0x8, addend: 0x0, symName: __ZNSt3__15tupleIJNS_10unique_ptrINS_15__thread_structENS_14default_deleteIS2_EEEEM5RobotFvvENS_17reference_wrapperIS6_EEEEC2B7v160006IJS5_S8_SA_ELi0EEEDpOT_, symObjAddr: 0x614C, symBinAddr: 0x100009A6C, symSize: 0x44 }
  - { offsetInCU: 0x155D1, offset: 0x155D1, size: 0x8, addend: 0x0, symName: __ZNSt3__112__tuple_implINS_15__tuple_indicesIJLm0ELm1ELm2EEEEJNS_10unique_ptrINS_15__thread_structENS_14default_deleteIS4_EEEEM5RobotFvvENS_17reference_wrapperIS8_EEEEC1B7v160006IJLm0ELm1ELm2EEJS7_SA_SC_EJEJEJS7_SA_SC_EEENS1_IJXspT_EEEENS_13__tuple_typesIJDpT0_EEENS1_IJXspT1_EEEENSG_IJDpT2_EEEDpOT3_, symObjAddr: 0x6190, symBinAddr: 0x100009AB0, symSize: 0x44 }
  - { offsetInCU: 0x156A0, offset: 0x156A0, size: 0x8, addend: 0x0, symName: __ZNSt3__112__tuple_implINS_15__tuple_indicesIJLm0ELm1ELm2EEEEJNS_10unique_ptrINS_15__thread_structENS_14default_deleteIS4_EEEEM5RobotFvvENS_17reference_wrapperIS8_EEEEC2B7v160006IJLm0ELm1ELm2EEJS7_SA_SC_EJEJEJS7_SA_SC_EEENS1_IJXspT_EEEENS_13__tuple_typesIJDpT0_EEENS1_IJXspT1_EEEENSG_IJDpT2_EEEDpOT3_, symObjAddr: 0x61D4, symBinAddr: 0x100009AF4, symSize: 0x5C }
  - { offsetInCU: 0x1576F, offset: 0x1576F, size: 0x8, addend: 0x0, symName: __ZNSt3__112__tuple_leafILm0ENS_10unique_ptrINS_15__thread_structENS_14default_deleteIS2_EEEELb0EEC2B7v160006IS5_vEEOT_, symObjAddr: 0x6230, symBinAddr: 0x100009B50, symSize: 0x34 }
  - { offsetInCU: 0x157B2, offset: 0x157B2, size: 0x8, addend: 0x0, symName: __ZNSt3__112__tuple_leafILm1EM5RobotFvvELb0EEC2B7v160006IS3_vEEOT_, symObjAddr: 0x6264, symBinAddr: 0x100009B84, symSize: 0x2C }
  - { offsetInCU: 0x157F5, offset: 0x157F5, size: 0x8, addend: 0x0, symName: __ZNSt3__112__tuple_leafILm2ENS_17reference_wrapperI5RobotEELb0EEC2B7v160006IS3_vEEOT_, symObjAddr: 0x6290, symBinAddr: 0x100009BB0, symSize: 0x24 }
  - { offsetInCU: 0x15838, offset: 0x15838, size: 0x8, addend: 0x0, symName: __ZNSt3__110unique_ptrINS_15__thread_structENS_14default_deleteIS1_EEEC1B7v160006EOS4_, symObjAddr: 0x62B4, symBinAddr: 0x100009BD4, symSize: 0x34 }
  - { offsetInCU: 0x15870, offset: 0x15870, size: 0x8, addend: 0x0, symName: __ZNSt3__110unique_ptrINS_15__thread_structENS_14default_deleteIS1_EEEC2B7v160006EOS4_, symObjAddr: 0x62E8, symBinAddr: 0x100009C08, symSize: 0x60 }
  - { offsetInCU: 0x158A8, offset: 0x158A8, size: 0x8, addend: 0x0, symName: __ZNSt3__110unique_ptrINS_15__thread_structENS_14default_deleteIS1_EEE7releaseB7v160006Ev, symObjAddr: 0x6348, symBinAddr: 0x100009C68, symSize: 0x44 }
  - { offsetInCU: 0x158DD, offset: 0x158DD, size: 0x8, addend: 0x0, symName: __ZNSt3__110unique_ptrINS_15__thread_structENS_14default_deleteIS1_EEE11get_deleterB7v160006Ev, symObjAddr: 0x638C, symBinAddr: 0x100009CAC, symSize: 0x24 }
  - { offsetInCU: 0x1590F, offset: 0x1590F, size: 0x8, addend: 0x0, symName: __ZNSt3__117__compressed_pairIPNS_15__thread_structENS_14default_deleteIS1_EEEC1B7v160006IS2_S4_EEOT_OT0_, symObjAddr: 0x63B0, symBinAddr: 0x100009CD0, symSize: 0x3C }
  - { offsetInCU: 0x15967, offset: 0x15967, size: 0x8, addend: 0x0, symName: __ZNSt3__117__compressed_pairIPNS_15__thread_structENS_14default_deleteIS1_EEE5firstB7v160006Ev, symObjAddr: 0x63EC, symBinAddr: 0x100009D0C, symSize: 0x24 }
  - { offsetInCU: 0x1598D, offset: 0x1598D, size: 0x8, addend: 0x0, symName: __ZNSt3__122__compressed_pair_elemIPNS_15__thread_structELi0ELb0EE5__getB7v160006Ev, symObjAddr: 0x6410, symBinAddr: 0x100009D30, symSize: 0x14 }
  - { offsetInCU: 0x159B3, offset: 0x159B3, size: 0x8, addend: 0x0, symName: __ZNSt3__117__compressed_pairIPNS_15__thread_structENS_14default_deleteIS1_EEE6secondB7v160006Ev, symObjAddr: 0x6424, symBinAddr: 0x100009D44, symSize: 0x24 }
  - { offsetInCU: 0x159D9, offset: 0x159D9, size: 0x8, addend: 0x0, symName: __ZNSt3__122__compressed_pair_elemINS_14default_deleteINS_15__thread_structEEELi1ELb1EE5__getB7v160006Ev, symObjAddr: 0x6448, symBinAddr: 0x100009D68, symSize: 0x14 }
  - { offsetInCU: 0x159FF, offset: 0x159FF, size: 0x8, addend: 0x0, symName: __ZNSt3__117__compressed_pairIPNS_15__thread_structENS_14default_deleteIS1_EEEC2B7v160006IS2_S4_EEOT_OT0_, symObjAddr: 0x645C, symBinAddr: 0x100009D7C, symSize: 0x44 }
  - { offsetInCU: 0x15A57, offset: 0x15A57, size: 0x8, addend: 0x0, symName: __ZNSt3__122__compressed_pair_elemIPNS_15__thread_structELi0ELb0EEC2B7v160006IS2_vEEOT_, symObjAddr: 0x64A0, symBinAddr: 0x100009DC0, symSize: 0x24 }
  - { offsetInCU: 0x15A99, offset: 0x15A99, size: 0x8, addend: 0x0, symName: __ZNSt3__122__compressed_pair_elemINS_14default_deleteINS_15__thread_structEEELi1ELb1EEC2B7v160006IS3_vEEOT_, symObjAddr: 0x64C4, symBinAddr: 0x100009DE4, symSize: 0x18 }
  - { offsetInCU: 0x15ADB, offset: 0x15ADB, size: 0x8, addend: 0x0, symName: __ZNSt3__110unique_ptrINS_5tupleIJNS0_INS_15__thread_structENS_14default_deleteIS2_EEEEM5RobotFvvENS_17reference_wrapperIS6_EEEEENS3_ISB_EEEC2B7v160006ILb1EvEEPSB_, symObjAddr: 0x64DC, symBinAddr: 0x100009DFC, symSize: 0x44 }
  - { offsetInCU: 0x15B1E, offset: 0x15B1E, size: 0x8, addend: 0x0, symName: __ZNSt3__117__compressed_pairIPNS_5tupleIJNS_10unique_ptrINS_15__thread_structENS_14default_deleteIS3_EEEEM5RobotFvvENS_17reference_wrapperIS7_EEEEENS4_ISC_EEEC1B7v160006IRSD_NS_16__value_init_tagEEEOT_OT0_, symObjAddr: 0x6520, symBinAddr: 0x100009E40, symSize: 0x3C }
  - { offsetInCU: 0x15B76, offset: 0x15B76, size: 0x8, addend: 0x0, symName: __ZNSt3__117__compressed_pairIPNS_5tupleIJNS_10unique_ptrINS_15__thread_structENS_14default_deleteIS3_EEEEM5RobotFvvENS_17reference_wrapperIS7_EEEEENS4_ISC_EEEC2B7v160006IRSD_NS_16__value_init_tagEEEOT_OT0_, symObjAddr: 0x655C, symBinAddr: 0x100009E7C, symSize: 0x40 }
  - { offsetInCU: 0x15BCE, offset: 0x15BCE, size: 0x8, addend: 0x0, symName: __ZNSt3__122__compressed_pair_elemIPNS_5tupleIJNS_10unique_ptrINS_15__thread_structENS_14default_deleteIS3_EEEEM5RobotFvvENS_17reference_wrapperIS7_EEEEELi0ELb0EEC2B7v160006IRSD_vEEOT_, symObjAddr: 0x659C, symBinAddr: 0x100009EBC, symSize: 0x24 }
  - { offsetInCU: 0x15C10, offset: 0x15C10, size: 0x8, addend: 0x0, symName: __ZNSt3__122__compressed_pair_elemINS_14default_deleteINS_5tupleIJNS_10unique_ptrINS_15__thread_structENS1_IS4_EEEEM5RobotFvvENS_17reference_wrapperIS7_EEEEEEELi1ELb1EEC2B7v160006ENS_16__value_init_tagE, symObjAddr: 0x65C0, symBinAddr: 0x100009EE0, symSize: 0x14 }
  - { offsetInCU: 0x15C74, offset: 0x15C74, size: 0x8, addend: 0x0, symName: __ZNSt3__121__thread_specific_ptrINS_15__thread_structEE11set_pointerEPS1_, symObjAddr: 0x65D4, symBinAddr: 0x100009EF4, symSize: 0x30 }
  - { offsetInCU: 0x15CA9, offset: 0x15CA9, size: 0x8, addend: 0x0, symName: __ZNSt3__112__tuple_leafILm0ENS_10unique_ptrINS_15__thread_structENS_14default_deleteIS2_EEEELb0EE3getB7v160006Ev, symObjAddr: 0x6690, symBinAddr: 0x100009FB0, symSize: 0x14 }
  - { offsetInCU: 0x15CCF, offset: 0x15CCF, size: 0x8, addend: 0x0, symName: __ZNKSt3__117reference_wrapperI5RobotE3getB7v160006Ev, symObjAddr: 0x6774, symBinAddr: 0x10000A094, symSize: 0x18 }
  - { offsetInCU: 0x15CF5, offset: 0x15CF5, size: 0x8, addend: 0x0, symName: __ZNSt3__112__tuple_leafILm1EM5RobotFvvELb0EE3getB7v160006Ev, symObjAddr: 0x678C, symBinAddr: 0x10000A0AC, symSize: 0x14 }
  - { offsetInCU: 0x15D1B, offset: 0x15D1B, size: 0x8, addend: 0x0, symName: __ZNSt3__112__tuple_leafILm2ENS_17reference_wrapperI5RobotEELb0EE3getB7v160006Ev, symObjAddr: 0x67A0, symBinAddr: 0x10000A0C0, symSize: 0x14 }
  - { offsetInCU: 0x15D41, offset: 0x15D41, size: 0x8, addend: 0x0, symName: __ZNKSt3__117__compressed_pairIPNS_5tupleIJNS_10unique_ptrINS_15__thread_structENS_14default_deleteIS3_EEEEM5RobotFvvENS_17reference_wrapperIS7_EEEEENS4_ISC_EEE5firstB7v160006Ev, symObjAddr: 0x67B4, symBinAddr: 0x10000A0D4, symSize: 0x24 }
  - { offsetInCU: 0x15D67, offset: 0x15D67, size: 0x8, addend: 0x0, symName: __ZNKSt3__122__compressed_pair_elemIPNS_5tupleIJNS_10unique_ptrINS_15__thread_structENS_14default_deleteIS3_EEEEM5RobotFvvENS_17reference_wrapperIS7_EEEEELi0ELb0EE5__getB7v160006Ev, symObjAddr: 0x67D8, symBinAddr: 0x10000A0F8, symSize: 0x14 }
  - { offsetInCU: 0x15D8D, offset: 0x15D8D, size: 0x8, addend: 0x0, symName: __ZNSt3__117__compressed_pairIPNS_5tupleIJNS_10unique_ptrINS_15__thread_structENS_14default_deleteIS3_EEEEM5RobotFvvENS_17reference_wrapperIS7_EEEEENS4_ISC_EEE5firstB7v160006Ev, symObjAddr: 0x67EC, symBinAddr: 0x10000A10C, symSize: 0x24 }
  - { offsetInCU: 0x15DB3, offset: 0x15DB3, size: 0x8, addend: 0x0, symName: __ZNSt3__122__compressed_pair_elemIPNS_5tupleIJNS_10unique_ptrINS_15__thread_structENS_14default_deleteIS3_EEEEM5RobotFvvENS_17reference_wrapperIS7_EEEEELi0ELb0EE5__getB7v160006Ev, symObjAddr: 0x6810, symBinAddr: 0x10000A130, symSize: 0x14 }
  - { offsetInCU: 0x15DD9, offset: 0x15DD9, size: 0x8, addend: 0x0, symName: __ZNSt3__110unique_ptrINS_5tupleIJNS0_INS_15__thread_structENS_14default_deleteIS2_EEEEM5RobotFvvENS_17reference_wrapperIS6_EEEEENS3_ISB_EEED2B7v160006Ev, symObjAddr: 0x6824, symBinAddr: 0x10000A144, symSize: 0x30 }
  - { offsetInCU: 0x15E03, offset: 0x15E03, size: 0x8, addend: 0x0, symName: __ZNSt3__110unique_ptrINS_5tupleIJNS0_INS_15__thread_structENS_14default_deleteIS2_EEEEM5RobotFvvENS_17reference_wrapperIS6_EEEEENS3_ISB_EEE5resetB7v160006EPSB_, symObjAddr: 0x6854, symBinAddr: 0x10000A174, symSize: 0x78 }
  - { offsetInCU: 0x15E47, offset: 0x15E47, size: 0x8, addend: 0x0, symName: __ZNSt3__117__compressed_pairIPNS_5tupleIJNS_10unique_ptrINS_15__thread_structENS_14default_deleteIS3_EEEEM5RobotFvvENS_17reference_wrapperIS7_EEEEENS4_ISC_EEE6secondB7v160006Ev, symObjAddr: 0x68CC, symBinAddr: 0x10000A1EC, symSize: 0x24 }
  - { offsetInCU: 0x15E6D, offset: 0x15E6D, size: 0x8, addend: 0x0, symName: __ZNKSt3__114default_deleteINS_5tupleIJNS_10unique_ptrINS_15__thread_structENS0_IS3_EEEEM5RobotFvvENS_17reference_wrapperIS6_EEEEEEclB7v160006EPSB_, symObjAddr: 0x68F0, symBinAddr: 0x10000A210, symSize: 0x4C }
  - { offsetInCU: 0x15EA1, offset: 0x15EA1, size: 0x8, addend: 0x0, symName: __ZNSt3__122__compressed_pair_elemINS_14default_deleteINS_5tupleIJNS_10unique_ptrINS_15__thread_structENS1_IS4_EEEEM5RobotFvvENS_17reference_wrapperIS7_EEEEEEELi1ELb1EE5__getB7v160006Ev, symObjAddr: 0x693C, symBinAddr: 0x10000A25C, symSize: 0x14 }
  - { offsetInCU: 0x15EC7, offset: 0x15EC7, size: 0x8, addend: 0x0, symName: __ZNSt3__15tupleIJNS_10unique_ptrINS_15__thread_structENS_14default_deleteIS2_EEEEM5RobotFvvENS_17reference_wrapperIS6_EEEED1Ev, symObjAddr: 0x6950, symBinAddr: 0x10000A270, symSize: 0x2C }
  - { offsetInCU: 0x15EF4, offset: 0x15EF4, size: 0x8, addend: 0x0, symName: __ZNSt3__15tupleIJNS_10unique_ptrINS_15__thread_structENS_14default_deleteIS2_EEEEM5RobotFvvENS_17reference_wrapperIS6_EEEED2Ev, symObjAddr: 0x697C, symBinAddr: 0x10000A29C, symSize: 0x2C }
  - { offsetInCU: 0x15F21, offset: 0x15F21, size: 0x8, addend: 0x0, symName: __ZNSt3__112__tuple_implINS_15__tuple_indicesIJLm0ELm1ELm2EEEEJNS_10unique_ptrINS_15__thread_structENS_14default_deleteIS4_EEEEM5RobotFvvENS_17reference_wrapperIS8_EEEED1Ev, symObjAddr: 0x69A8, symBinAddr: 0x10000A2C8, symSize: 0x2C }
  - { offsetInCU: 0x15F4E, offset: 0x15F4E, size: 0x8, addend: 0x0, symName: __ZNSt3__112__tuple_implINS_15__tuple_indicesIJLm0ELm1ELm2EEEEJNS_10unique_ptrINS_15__thread_structENS_14default_deleteIS4_EEEEM5RobotFvvENS_17reference_wrapperIS8_EEEED2Ev, symObjAddr: 0x69D4, symBinAddr: 0x10000A2F4, symSize: 0x2C }
  - { offsetInCU: 0x15F7B, offset: 0x15F7B, size: 0x8, addend: 0x0, symName: __ZNSt3__112__tuple_leafILm0ENS_10unique_ptrINS_15__thread_structENS_14default_deleteIS2_EEEELb0EED2Ev, symObjAddr: 0x6A00, symBinAddr: 0x10000A320, symSize: 0x2C }
  - { offsetInCU: 0x15FA8, offset: 0x15FA8, size: 0x8, addend: 0x0, symName: __ZNSt3__110unique_ptrINS_15__thread_structENS_14default_deleteIS1_EEED2B7v160006Ev, symObjAddr: 0x6A2C, symBinAddr: 0x10000A34C, symSize: 0x30 }
  - { offsetInCU: 0x15FD2, offset: 0x15FD2, size: 0x8, addend: 0x0, symName: __ZNSt3__110unique_ptrINS_15__thread_structENS_14default_deleteIS1_EEE5resetB7v160006EPS1_, symObjAddr: 0x6A5C, symBinAddr: 0x10000A37C, symSize: 0x78 }
  - { offsetInCU: 0x16016, offset: 0x16016, size: 0x8, addend: 0x0, symName: __ZNKSt3__114default_deleteINS_15__thread_structEEclB7v160006EPS1_, symObjAddr: 0x6AD4, symBinAddr: 0x10000A3F4, symSize: 0x4C }
  - { offsetInCU: 0x1604A, offset: 0x1604A, size: 0x8, addend: 0x0, symName: __ZNSt3__16vectorINS_6threadENS_9allocatorIS1_EEE11__make_iterB7v160006EPS1_, symObjAddr: 0x6B20, symBinAddr: 0x10000A440, symSize: 0x34 }
  - { offsetInCU: 0x1607F, offset: 0x1607F, size: 0x8, addend: 0x0, symName: __ZNSt3__111__wrap_iterIPNS_6threadEEC1B7v160006EPKvS2_, symObjAddr: 0x6B54, symBinAddr: 0x10000A474, symSize: 0x3C }
  - { offsetInCU: 0x160C5, offset: 0x160C5, size: 0x8, addend: 0x0, symName: __ZNSt3__111__wrap_iterIPNS_6threadEEC2B7v160006EPKvS2_, symObjAddr: 0x6B90, symBinAddr: 0x10000A4B0, symSize: 0x24 }
  - { offsetInCU: 0x1610B, offset: 0x1610B, size: 0x8, addend: 0x0, symName: __ZNKSt3__111__wrap_iterIPNS_6threadEE4baseB7v160006Ev, symObjAddr: 0x6BFC, symBinAddr: 0x10000A51C, symSize: 0x18 }
  - { offsetInCU: 0x16131, offset: 0x16131, size: 0x8, addend: 0x0, symName: __ZNKSt3__16chrono10time_pointINS0_12steady_clockENS0_8durationIxNS_5ratioILl1ELl1000000000EEEEEE16time_since_epochB7v160006Ev, symObjAddr: 0x6D58, symBinAddr: 0x10000A678, symSize: 0x20 }
  - { offsetInCU: 0x16157, offset: 0x16157, size: 0x8, addend: 0x0, symName: __ZN5ArenaD2Ev, symObjAddr: 0x6D78, symBinAddr: 0x10000A698, symSize: 0x44 }
  - { offsetInCU: 0x16183, offset: 0x16183, size: 0x8, addend: 0x0, symName: __ZNSt3__111char_traitsIcE6lengthEPKc, symObjAddr: 0x6FA8, symBinAddr: 0x10000A8C8, symSize: 0x34 }
  - { offsetInCU: 0x161C4, offset: 0x161C4, size: 0x8, addend: 0x0, symName: __ZNKSt3__113basic_ostreamIcNS_11char_traitsIcEEE6sentrycvbB7v160006Ev, symObjAddr: 0x6FDC, symBinAddr: 0x10000A8FC, symSize: 0x1C }
  - { offsetInCU: 0x161EA, offset: 0x161EA, size: 0x8, addend: 0x0, symName: __ZNSt3__119ostreambuf_iteratorIcNS_11char_traitsIcEEEC1B7v160006ERNS_13basic_ostreamIcS2_EE, symObjAddr: 0x7238, symBinAddr: 0x10000AB58, symSize: 0x34 }
  - { offsetInCU: 0x16222, offset: 0x16222, size: 0x8, addend: 0x0, symName: __ZNKSt3__18ios_base5flagsB7v160006Ev, symObjAddr: 0x726C, symBinAddr: 0x10000AB8C, symSize: 0x18 }
  - { offsetInCU: 0x1624A, offset: 0x1624A, size: 0x8, addend: 0x0, symName: __ZNKSt3__19basic_iosIcNS_11char_traitsIcEEE4fillB7v160006Ev, symObjAddr: 0x7284, symBinAddr: 0x10000ABA4, symSize: 0x64 }
  - { offsetInCU: 0x16272, offset: 0x16272, size: 0x8, addend: 0x0, symName: __ZNKSt3__119ostreambuf_iteratorIcNS_11char_traitsIcEEE6failedB7v160006Ev, symObjAddr: 0x72E8, symBinAddr: 0x10000AC08, symSize: 0x24 }
  - { offsetInCU: 0x16298, offset: 0x16298, size: 0x8, addend: 0x0, symName: __ZNSt3__19basic_iosIcNS_11char_traitsIcEEE8setstateB7v160006Ej, symObjAddr: 0x730C, symBinAddr: 0x10000AC2C, symSize: 0x2C }
  - { offsetInCU: 0x162CD, offset: 0x162CD, size: 0x8, addend: 0x0, symName: __ZNKSt3__18ios_base5widthB7v160006Ev, symObjAddr: 0x7338, symBinAddr: 0x10000AC58, symSize: 0x18 }
  - { offsetInCU: 0x162F5, offset: 0x162F5, size: 0x8, addend: 0x0, symName: __ZNSt3__115basic_streambufIcNS_11char_traitsIcEEE5sputnB7v160006EPKcl, symObjAddr: 0x7350, symBinAddr: 0x10000AC70, symSize: 0x3C }
  - { offsetInCU: 0x16337, offset: 0x16337, size: 0x8, addend: 0x0, symName: __ZNSt3__112basic_stringIcNS_11char_traitsIcEENS_9allocatorIcEEEC1B7v160006Emc, symObjAddr: 0x738C, symBinAddr: 0x10000ACAC, symSize: 0x3C }
  - { offsetInCU: 0x1637F, offset: 0x1637F, size: 0x8, addend: 0x0, symName: __ZNKSt3__112basic_stringIcNS_11char_traitsIcEENS_9allocatorIcEEE4dataB7v160006Ev, symObjAddr: 0x73C8, symBinAddr: 0x10000ACE8, symSize: 0x28 }
  - { offsetInCU: 0x163A5, offset: 0x163A5, size: 0x8, addend: 0x0, symName: __ZNSt3__18ios_base5widthB7v160006El, symObjAddr: 0x73F0, symBinAddr: 0x10000AD10, symSize: 0x2C }
  - { offsetInCU: 0x163EB, offset: 0x163EB, size: 0x8, addend: 0x0, symName: __ZNSt3__112basic_stringIcNS_11char_traitsIcEENS_9allocatorIcEEEC2B7v160006Emc, symObjAddr: 0x741C, symBinAddr: 0x10000AD3C, symSize: 0x54 }
  - { offsetInCU: 0x16433, offset: 0x16433, size: 0x8, addend: 0x0, symName: __ZNSt3__117__compressed_pairINS_12basic_stringIcNS_11char_traitsIcEENS_9allocatorIcEEE5__repES5_EC1B7v160006INS_18__default_init_tagESA_EEOT_OT0_, symObjAddr: 0x7470, symBinAddr: 0x10000AD90, symSize: 0x3C }
  - { offsetInCU: 0x1648B, offset: 0x1648B, size: 0x8, addend: 0x0, symName: __ZNSt3__117__compressed_pairINS_12basic_stringIcNS_11char_traitsIcEENS_9allocatorIcEEE5__repES5_EC2B7v160006INS_18__default_init_tagESA_EEOT_OT0_, symObjAddr: 0x74BC, symBinAddr: 0x10000ADDC, symSize: 0x3C }
  - { offsetInCU: 0x164E3, offset: 0x164E3, size: 0x8, addend: 0x0, symName: __ZNSt3__122__compressed_pair_elemINS_12basic_stringIcNS_11char_traitsIcEENS_9allocatorIcEEE5__repELi0ELb0EEC2B7v160006ENS_18__default_init_tagE, symObjAddr: 0x74F8, symBinAddr: 0x10000AE18, symSize: 0x14 }
  - { offsetInCU: 0x16518, offset: 0x16518, size: 0x8, addend: 0x0, symName: __ZNSt3__122__compressed_pair_elemINS_9allocatorIcEELi1ELb1EEC2B7v160006ENS_18__default_init_tagE, symObjAddr: 0x750C, symBinAddr: 0x10000AE2C, symSize: 0x2C }
  - { offsetInCU: 0x1654D, offset: 0x1654D, size: 0x8, addend: 0x0, symName: __ZNSt3__19allocatorIcEC2B7v160006Ev, symObjAddr: 0x7538, symBinAddr: 0x10000AE58, symSize: 0x2C }
  - { offsetInCU: 0x16577, offset: 0x16577, size: 0x8, addend: 0x0, symName: __ZNSt3__116__non_trivial_ifILb1ENS_9allocatorIcEEEC2B7v160006Ev, symObjAddr: 0x7564, symBinAddr: 0x10000AE84, symSize: 0x14 }
  - { offsetInCU: 0x165A1, offset: 0x165A1, size: 0x8, addend: 0x0, symName: __ZNKSt3__112basic_stringIcNS_11char_traitsIcEENS_9allocatorIcEEE13__get_pointerB7v160006Ev, symObjAddr: 0x758C, symBinAddr: 0x10000AEAC, symSize: 0x54 }
  - { offsetInCU: 0x165C7, offset: 0x165C7, size: 0x8, addend: 0x0, symName: __ZNKSt3__112basic_stringIcNS_11char_traitsIcEENS_9allocatorIcEEE9__is_longB7v160006Ev, symObjAddr: 0x75E0, symBinAddr: 0x10000AF00, symSize: 0x38 }
  - { offsetInCU: 0x165ED, offset: 0x165ED, size: 0x8, addend: 0x0, symName: __ZNKSt3__112basic_stringIcNS_11char_traitsIcEENS_9allocatorIcEEE18__get_long_pointerB7v160006Ev, symObjAddr: 0x7618, symBinAddr: 0x10000AF38, symSize: 0x28 }
  - { offsetInCU: 0x16613, offset: 0x16613, size: 0x8, addend: 0x0, symName: __ZNKSt3__112basic_stringIcNS_11char_traitsIcEENS_9allocatorIcEEE19__get_short_pointerB7v160006Ev, symObjAddr: 0x7640, symBinAddr: 0x10000AF60, symSize: 0x28 }
  - { offsetInCU: 0x16639, offset: 0x16639, size: 0x8, addend: 0x0, symName: __ZNKSt3__117__compressed_pairINS_12basic_stringIcNS_11char_traitsIcEENS_9allocatorIcEEE5__repES5_E5firstB7v160006Ev, symObjAddr: 0x7668, symBinAddr: 0x10000AF88, symSize: 0x24 }
  - { offsetInCU: 0x1665F, offset: 0x1665F, size: 0x8, addend: 0x0, symName: __ZNKSt3__122__compressed_pair_elemINS_12basic_stringIcNS_11char_traitsIcEENS_9allocatorIcEEE5__repELi0ELb0EE5__getB7v160006Ev, symObjAddr: 0x768C, symBinAddr: 0x10000AFAC, symSize: 0x14 }
  - { offsetInCU: 0x16685, offset: 0x16685, size: 0x8, addend: 0x0, symName: __ZNSt3__114pointer_traitsIPKcE10pointer_toB7v160006ERS1_, symObjAddr: 0x76A0, symBinAddr: 0x10000AFC0, symSize: 0x14 }
  - { offsetInCU: 0x166A8, offset: 0x166A8, size: 0x8, addend: 0x0, symName: __ZNSt3__119ostreambuf_iteratorIcNS_11char_traitsIcEEEC2B7v160006ERNS_13basic_ostreamIcS2_EE, symObjAddr: 0x76B4, symBinAddr: 0x10000AFD4, symSize: 0x54 }
  - { offsetInCU: 0x166E0, offset: 0x166E0, size: 0x8, addend: 0x0, symName: __ZNKSt3__19basic_iosIcNS_11char_traitsIcEEE5rdbufB7v160006Ev, symObjAddr: 0x7708, symBinAddr: 0x10000B028, symSize: 0x24 }
  - { offsetInCU: 0x16708, offset: 0x16708, size: 0x8, addend: 0x0, symName: __ZNKSt3__18ios_base5rdbufB7v160006Ev, symObjAddr: 0x772C, symBinAddr: 0x10000B04C, symSize: 0x18 }
  - { offsetInCU: 0x1672E, offset: 0x1672E, size: 0x8, addend: 0x0, symName: __ZNSt3__111char_traitsIcE11eq_int_typeEii, symObjAddr: 0x7744, symBinAddr: 0x10000B064, symSize: 0x28 }
  - { offsetInCU: 0x1675F, offset: 0x1675F, size: 0x8, addend: 0x0, symName: __ZNSt3__111char_traitsIcE3eofEv, symObjAddr: 0x776C, symBinAddr: 0x10000B08C, symSize: 0x8 }
  - { offsetInCU: 0x16773, offset: 0x16773, size: 0x8, addend: 0x0, symName: __ZNKSt3__19basic_iosIcNS_11char_traitsIcEEE5widenB7v160006Ec, symObjAddr: 0x7774, symBinAddr: 0x10000B094, symSize: 0x84 }
  - { offsetInCU: 0x167E1, offset: 0x167E1, size: 0x8, addend: 0x0, symName: __ZNKSt3__15ctypeIcE5widenB7v160006Ec, symObjAddr: 0x7824, symBinAddr: 0x10000B144, symSize: 0x38 }
  - { offsetInCU: 0x16816, offset: 0x16816, size: 0x8, addend: 0x0, symName: __ZNSt3__18ios_base8setstateB7v160006Ej, symObjAddr: 0x785C, symBinAddr: 0x10000B17C, symSize: 0x34 }
...
